
4_column_compare_with_literal.o:     file format elf64-x86-64


Disassembly of section .bss:

0000000000000000 <_ZN55_INTERNAL_33_4_column_compare_with_literal_cpp_2e49b093St8__ioinitE>:
   0:	00 00                	add    %al,(%rax)
	...

Disassembly of section .text:

0000000000000000 <_Z35four_columns_cmp_with_literal_nP_nSPmmPPhjmmS1_jmmS1_jmmS1_jmm>:
       0:	53                   	push   %rbx
       1:	48 89 e3             	mov    %rsp,%rbx
       4:	48 83 e4 e0          	and    $0xffffffffffffffe0,%rsp
       8:	55                   	push   %rbp
       9:	55                   	push   %rbp
       a:	48 8b 6b 08          	mov    0x8(%rbx),%rbp
       e:	48 89 6c 24 08       	mov    %rbp,0x8(%rsp)
      13:	48 89 e5             	mov    %rsp,%rbp
      16:	41 54                	push   %r12
      18:	41 55                	push   %r13
      1a:	41 56                	push   %r14
      1c:	41 57                	push   %r15
      1e:	48 83 ec 70          	sub    $0x70,%rsp
      22:	4d 89 c4             	mov    %r8,%r12
      25:	4c 89 e0             	mov    %r12,%rax
      28:	4d 89 cd             	mov    %r9,%r13
      2b:	48 c1 e0 05          	shl    $0x5,%rax
      2f:	49 89 f1             	mov    %rsi,%r9
      32:	48 89 55 98          	mov    %rdx,-0x68(%rbp)
      36:	48 89 85 78 ff ff ff 	mov    %rax,-0x88(%rbp)
      3d:	48 83 c0 1f          	add    $0x1f,%rax
      41:	48 83 e0 e0          	and    $0xffffffffffffffe0,%rax
      45:	48 2b e0             	sub    %rax,%rsp
      48:	48 89 e0             	mov    %rsp,%rax
      4b:	48 89 45 a8          	mov    %rax,-0x58(%rbp)
      4f:	41 89 ce             	mov    %ecx,%r14d
      52:	44 89 e9             	mov    %r13d,%ecx
      55:	48 8b 43 20          	mov    0x20(%rbx),%rax
      59:	49 d3 e6             	shl    %cl,%r14
      5c:	48 c1 e0 05          	shl    $0x5,%rax
      60:	48 89 45 80          	mov    %rax,-0x80(%rbp)
      64:	48 83 c0 1f          	add    $0x1f,%rax
      68:	48 83 e0 e0          	and    $0xffffffffffffffe0,%rax
      6c:	48 2b e0             	sub    %rax,%rsp
      6f:	48 89 e0             	mov    %rsp,%rax
      72:	48 89 45 a0          	mov    %rax,-0x60(%rbp)
      76:	4c 8b 43 40          	mov    0x40(%rbx),%r8
      7a:	4c 89 c0             	mov    %r8,%rax
      7d:	8b 4b 28             	mov    0x28(%rbx),%ecx
      80:	44 8b 7b 18          	mov    0x18(%rbx),%r15d
      84:	49 d3 e7             	shl    %cl,%r15
      87:	48 c1 e0 05          	shl    $0x5,%rax
      8b:	48 89 45 88          	mov    %rax,-0x78(%rbp)
      8f:	48 83 c0 1f          	add    $0x1f,%rax
      93:	48 83 e0 e0          	and    $0xffffffffffffffe0,%rax
      97:	48 2b e0             	sub    %rax,%rsp
      9a:	48 89 e0             	mov    %rsp,%rax
      9d:	48 89 45 b0          	mov    %rax,-0x50(%rbp)
      a1:	48 8b 73 60          	mov    0x60(%rbx),%rsi
      a5:	48 89 f0             	mov    %rsi,%rax
      a8:	8b 4b 48             	mov    0x48(%rbx),%ecx
      ab:	44 8b 6b 38          	mov    0x38(%rbx),%r13d
      af:	49 d3 e5             	shl    %cl,%r13
      b2:	48 c1 e0 05          	shl    $0x5,%rax
      b6:	48 89 45 90          	mov    %rax,-0x70(%rbp)
      ba:	48 83 c0 1f          	add    $0x1f,%rax
      be:	48 83 e0 e0          	and    $0xffffffffffffffe0,%rax
      c2:	48 2b e0             	sub    %rax,%rsp
      c5:	48 89 e0             	mov    %rsp,%rax
      c8:	8b 4b 68             	mov    0x68(%rbx),%ecx
      cb:	44 8b 53 58          	mov    0x58(%rbx),%r10d
      cf:	49 d3 e2             	shl    %cl,%r10
      d2:	33 c9                	xor    %ecx,%ecx
      d4:	33 d2                	xor    %edx,%edx
      d6:	4d 85 e4             	test   %r12,%r12
      d9:	76 5d                	jbe    138 <_Z35four_columns_cmp_with_literal_nP_nSPmmPPhjmmS1_jmmS1_jmmS1_jmm+0x138>
      db:	4c 89 4d b8          	mov    %r9,-0x48(%rbp)
      df:	4e 8d 1c e5 f8 ff ff 	lea    -0x8(,%r12,8),%r11
      e6:	ff 
      e7:	48 8b 75 a8          	mov    -0x58(%rbp),%rsi
      eb:	49 89 c8             	mov    %rcx,%r8
      ee:	44 89 d9             	mov    %r11d,%ecx
      f1:	45 89 f1             	mov    %r14d,%r9d
      f4:	41 d3 e9             	shr    %cl,%r9d
      f7:	49 ff c0             	inc    %r8
      fa:	41 83 f1 80          	xor    $0xffffff80,%r9d
      fe:	49 83 c3 f8          	add    $0xfffffffffffffff8,%r11
     102:	45 0f b6 c9          	movzbl %r9b,%r9d
     106:	c4 c1 79 6e c1       	vmovd  %r9d,%xmm0
     10b:	c5 f9 60 c8          	vpunpcklbw %xmm0,%xmm0,%xmm1
     10f:	c5 f1 60 d1          	vpunpcklbw %xmm1,%xmm1,%xmm2
     113:	c5 f9 70 da 00       	vpshufd $0x0,%xmm2,%xmm3
     118:	c4 e3 65 18 e3 01    	vinsertf128 $0x1,%xmm3,%ymm3,%ymm4
     11e:	c5 fc 29 24 32       	vmovaps %ymm4,(%rdx,%rsi,1)
     123:	48 83 c2 20          	add    $0x20,%rdx
     127:	4d 3b c4             	cmp    %r12,%r8
     12a:	72 c2                	jb     ee <_Z35four_columns_cmp_with_literal_nP_nSPmmPPhjmmS1_jmmS1_jmmS1_jmm+0xee>
     12c:	48 8b 73 60          	mov    0x60(%rbx),%rsi
     130:	4c 8b 43 40          	mov    0x40(%rbx),%r8
     134:	4c 8b 4d b8          	mov    -0x48(%rbp),%r9
     138:	33 d2                	xor    %edx,%edx
     13a:	45 33 f6             	xor    %r14d,%r14d
     13d:	48 83 7b 20 00       	cmpq   $0x0,0x20(%rbx)
     142:	76 68                	jbe    1ac <_Z35four_columns_cmp_with_literal_nP_nSPmmPPhjmmS1_jmmS1_jmmS1_jmm+0x1ac>
     144:	48 8b 4b 20          	mov    0x20(%rbx),%rcx
     148:	49 89 c8             	mov    %rcx,%r8
     14b:	4c 89 a5 70 ff ff ff 	mov    %r12,-0x90(%rbp)
     152:	48 8b 75 a0          	mov    -0x60(%rbp),%rsi
     156:	4c 8d 1c cd f8 ff ff 	lea    -0x8(,%rcx,8),%r11
     15d:	ff 
     15e:	44 89 d9             	mov    %r11d,%ecx
     161:	45 89 fc             	mov    %r15d,%r12d
     164:	41 d3 ec             	shr    %cl,%r12d
     167:	48 ff c2             	inc    %rdx
     16a:	41 83 f4 80          	xor    $0xffffff80,%r12d
     16e:	49 83 c3 f8          	add    $0xfffffffffffffff8,%r11
     172:	45 0f b6 e4          	movzbl %r12b,%r12d
     176:	c4 c1 79 6e c4       	vmovd  %r12d,%xmm0
     17b:	c5 f9 60 c8          	vpunpcklbw %xmm0,%xmm0,%xmm1
     17f:	c5 f1 60 d1          	vpunpcklbw %xmm1,%xmm1,%xmm2
     183:	c5 f9 70 da 00       	vpshufd $0x0,%xmm2,%xmm3
     188:	c4 e3 65 18 e3 01    	vinsertf128 $0x1,%xmm3,%ymm3,%ymm4
     18e:	c4 c1 7c 29 24 36    	vmovaps %ymm4,(%r14,%rsi,1)
     194:	49 83 c6 20          	add    $0x20,%r14
     198:	49 3b d0             	cmp    %r8,%rdx
     19b:	72 c1                	jb     15e <_Z35four_columns_cmp_with_literal_nP_nSPmmPPhjmmS1_jmmS1_jmmS1_jmm+0x15e>
     19d:	48 8b 73 60          	mov    0x60(%rbx),%rsi
     1a1:	4c 8b 43 40          	mov    0x40(%rbx),%r8
     1a5:	4c 8b a5 70 ff ff ff 	mov    -0x90(%rbp),%r12
     1ac:	45 33 f6             	xor    %r14d,%r14d
     1af:	45 33 ff             	xor    %r15d,%r15d
     1b2:	4d 85 c0             	test   %r8,%r8
     1b5:	76 4b                	jbe    202 <_Z35four_columns_cmp_with_literal_nP_nSPmmPPhjmmS1_jmmS1_jmmS1_jmm+0x202>
     1b7:	48 8b 75 b0          	mov    -0x50(%rbp),%rsi
     1bb:	4e 8d 1c c5 f8 ff ff 	lea    -0x8(,%r8,8),%r11
     1c2:	ff 
     1c3:	44 89 d9             	mov    %r11d,%ecx
     1c6:	44 89 ea             	mov    %r13d,%edx
     1c9:	d3 ea                	shr    %cl,%edx
     1cb:	49 ff c6             	inc    %r14
     1ce:	83 f2 80             	xor    $0xffffff80,%edx
     1d1:	49 83 c3 f8          	add    $0xfffffffffffffff8,%r11
     1d5:	0f b6 d2             	movzbl %dl,%edx
     1d8:	c5 f9 6e c2          	vmovd  %edx,%xmm0
     1dc:	c5 f9 60 c8          	vpunpcklbw %xmm0,%xmm0,%xmm1
     1e0:	c5 f1 60 d1          	vpunpcklbw %xmm1,%xmm1,%xmm2
     1e4:	c5 f9 70 da 00       	vpshufd $0x0,%xmm2,%xmm3
     1e9:	c4 e3 65 18 e3 01    	vinsertf128 $0x1,%xmm3,%ymm3,%ymm4
     1ef:	c4 c1 7c 29 24 37    	vmovaps %ymm4,(%r15,%rsi,1)
     1f5:	49 83 c7 20          	add    $0x20,%r15
     1f9:	4d 3b f0             	cmp    %r8,%r14
     1fc:	72 c5                	jb     1c3 <_Z35four_columns_cmp_with_literal_nP_nSPmmPPhjmmS1_jmmS1_jmmS1_jmm+0x1c3>
     1fe:	48 8b 73 60          	mov    0x60(%rbx),%rsi
     202:	45 33 ed             	xor    %r13d,%r13d
     205:	45 33 db             	xor    %r11d,%r11d
     208:	48 85 f6             	test   %rsi,%rsi
     20b:	76 47                	jbe    254 <_Z35four_columns_cmp_with_literal_nP_nSPmmPPhjmmS1_jmmS1_jmmS1_jmm+0x254>
     20d:	4c 8d 34 f5 f8 ff ff 	lea    -0x8(,%rsi,8),%r14
     214:	ff 
     215:	44 89 f1             	mov    %r14d,%ecx
     218:	45 89 d7             	mov    %r10d,%r15d
     21b:	41 d3 ef             	shr    %cl,%r15d
     21e:	49 ff c5             	inc    %r13
     221:	41 83 f7 80          	xor    $0xffffff80,%r15d
     225:	49 83 c6 f8          	add    $0xfffffffffffffff8,%r14
     229:	45 0f b6 ff          	movzbl %r15b,%r15d
     22d:	c4 c1 79 6e c7       	vmovd  %r15d,%xmm0
     232:	c5 f9 60 c8          	vpunpcklbw %xmm0,%xmm0,%xmm1
     236:	c5 f1 60 d1          	vpunpcklbw %xmm1,%xmm1,%xmm2
     23a:	c5 f9 70 da 00       	vpshufd $0x0,%xmm2,%xmm3
     23f:	c4 e3 65 18 e3 01    	vinsertf128 $0x1,%xmm3,%ymm3,%ymm4
     245:	c4 c1 7c 29 24 03    	vmovaps %ymm4,(%r11,%rax,1)
     24b:	49 83 c3 20          	add    $0x20,%r11
     24f:	4c 3b ee             	cmp    %rsi,%r13
     252:	72 c1                	jb     215 <_Z35four_columns_cmp_with_literal_nP_nSPmmPPhjmmS1_jmmS1_jmmS1_jmm+0x215>
     254:	45 33 d2             	xor    %r10d,%r10d
     257:	33 c9                	xor    %ecx,%ecx
     259:	4d 85 c9             	test   %r9,%r9
     25c:	0f 86 df 03 00 00    	jbe    641 <_Z35four_columns_cmp_with_literal_nP_nSPmmPPhjmmS1_jmmS1_jmmS1_jmm+0x641>
     262:	4c 8b 6d a8          	mov    -0x58(%rbp),%r13
     266:	4c 8b 5d b0          	mov    -0x50(%rbp),%r11
     26a:	4c 8b 75 a0          	mov    -0x60(%rbp),%r14
     26e:	c4 41 7d 6f 55 00    	vmovdqa 0x0(%r13),%ymm10
     274:	c4 41 7d 6f 1b       	vmovdqa (%r11),%ymm11
     279:	c4 41 7d 6f 0e       	vmovdqa (%r14),%ymm9
     27e:	c5 fd 6f 38          	vmovdqa (%rax),%ymm7
     282:	48 8b 53 10          	mov    0x10(%rbx),%rdx
     286:	4c 8b 7b 30          	mov    0x30(%rbx),%r15
     28a:	4c 8b 5b 50          	mov    0x50(%rbx),%r11
     28e:	4c 8b 6d 98          	mov    -0x68(%rbp),%r13
     292:	4c 8b 32             	mov    (%rdx),%r14
     295:	4d 8b 3f             	mov    (%r15),%r15
     298:	4d 8b 6d 00          	mov    0x0(%r13),%r13
     29c:	4d 8b 1b             	mov    (%r11),%r11
     29f:	48 89 85 70 ff ff ff 	mov    %rax,-0x90(%rbp)
     2a6:	33 c0                	xor    %eax,%eax
     2a8:	48 89 7d c0          	mov    %rdi,-0x40(%rbp)
     2ac:	33 d2                	xor    %edx,%edx
     2ae:	48 89 4d c8          	mov    %rcx,-0x38(%rbp)
     2b2:	4c 89 4d b8          	mov    %r9,-0x48(%rbp)
     2b6:	48 8b 7b 20          	mov    0x20(%rbx),%rdi
     2ba:	c4 a1 7e 6f 04 2a    	vmovdqu (%rdx,%r13,1),%ymm0
     2c0:	49 83 fc 01          	cmp    $0x1,%r12
     2c4:	c4 a1 7e 6f 24 32    	vmovdqu (%rdx,%r14,1),%ymm4
     2ca:	c4 a1 7e 6f 14 3a    	vmovdqu (%rdx,%r15,1),%ymm2
     2d0:	c4 a1 7e 6f 0c 1a    	vmovdqu (%rdx,%r11,1),%ymm1
     2d6:	c4 41 7d 64 c2       	vpcmpgtb %ymm10,%ymm0,%ymm8
     2db:	c5 ad 74 c0          	vpcmpeqb %ymm0,%ymm10,%ymm0
     2df:	c5 b5 64 f4          	vpcmpgtb %ymm4,%ymm9,%ymm6
     2e3:	c5 b5 74 ec          	vpcmpeqb %ymm4,%ymm9,%ymm5
     2e7:	c4 c1 6d 64 e3       	vpcmpgtb %ymm11,%ymm2,%ymm4
     2ec:	c5 a5 74 da          	vpcmpeqb %ymm2,%ymm11,%ymm3
     2f0:	c5 c5 64 d1          	vpcmpgtb %ymm1,%ymm7,%ymm2
     2f4:	c5 c5 74 c9          	vpcmpeqb %ymm1,%ymm7,%ymm1
     2f8:	0f 86 b4 00 00 00    	jbe    3b2 <_Z35four_columns_cmp_with_literal_nP_nSPmmPPhjmmS1_jmmS1_jmmS1_jmm+0x3b2>
     2fe:	c4 e2 7d 17 c0       	vptest %ymm0,%ymm0
     303:	0f 84 a9 00 00 00    	je     3b2 <_Z35four_columns_cmp_with_literal_nP_nSPmmPPhjmmS1_jmmS1_jmmS1_jmm+0x3b2>
     309:	4c 8b 4d a8          	mov    -0x58(%rbp),%r9
     30d:	49 8d 0c 12          	lea    (%r10,%rdx,1),%rcx
     311:	49 83 fc 02          	cmp    $0x2,%r12
     315:	c4 41 7d 6f 71 20    	vmovdqa 0x20(%r9),%ymm14
     31b:	4c 8b 4d 98          	mov    -0x68(%rbp),%r9
     31f:	4d 8b 49 08          	mov    0x8(%r9),%r9
     323:	c4 41 7e 6f 3c 09    	vmovdqu (%r9,%rcx,1),%ymm15
     329:	c4 41 05 64 e6       	vpcmpgtb %ymm14,%ymm15,%ymm12
     32e:	c4 41 7d db ec       	vpand  %ymm12,%ymm0,%ymm13
     333:	c4 41 0d 74 e7       	vpcmpeqb %ymm15,%ymm14,%ymm12
     338:	c4 41 3d eb c5       	vpor   %ymm13,%ymm8,%ymm8
     33d:	c4 c1 7d db c4       	vpand  %ymm12,%ymm0,%ymm0
     342:	76 6e                	jbe    3b2 <_Z35four_columns_cmp_with_literal_nP_nSPmmPPhjmmS1_jmmS1_jmmS1_jmm+0x3b2>
     344:	c4 e2 7d 17 c0       	vptest %ymm0,%ymm0
     349:	74 67                	je     3b2 <_Z35four_columns_cmp_with_literal_nP_nSPmmPPhjmmS1_jmmS1_jmmS1_jmm+0x3b2>
     34b:	4c 8b 4d a8          	mov    -0x58(%rbp),%r9
     34f:	49 8d 0c 12          	lea    (%r10,%rdx,1),%rcx
     353:	49 83 fc 03          	cmp    $0x3,%r12
     357:	c4 41 7d 6f 71 40    	vmovdqa 0x40(%r9),%ymm14
     35d:	4c 8b 4d 98          	mov    -0x68(%rbp),%r9
     361:	4d 8b 49 10          	mov    0x10(%r9),%r9
     365:	c4 41 7e 6f 3c 09    	vmovdqu (%r9,%rcx,1),%ymm15
     36b:	c4 41 05 64 e6       	vpcmpgtb %ymm14,%ymm15,%ymm12
     370:	c4 41 7d db ec       	vpand  %ymm12,%ymm0,%ymm13
     375:	c4 41 0d 74 e7       	vpcmpeqb %ymm15,%ymm14,%ymm12
     37a:	c4 41 3d eb c5       	vpor   %ymm13,%ymm8,%ymm8
     37f:	c4 41 7d db e4       	vpand  %ymm12,%ymm0,%ymm12
     384:	76 2c                	jbe    3b2 <_Z35four_columns_cmp_with_literal_nP_nSPmmPPhjmmS1_jmmS1_jmmS1_jmm+0x3b2>
     386:	c4 42 7d 17 e4       	vptest %ymm12,%ymm12
     38b:	74 25                	je     3b2 <_Z35four_columns_cmp_with_literal_nP_nSPmmPPhjmmS1_jmmS1_jmmS1_jmm+0x3b2>
     38d:	4c 8b 4d 98          	mov    -0x68(%rbp),%r9
     391:	49 8d 0c 12          	lea    (%r10,%rdx,1),%rcx
     395:	4d 8b 49 18          	mov    0x18(%r9),%r9
     399:	c4 c1 7e 6f 04 09    	vmovdqu (%r9,%rcx,1),%ymm0
     39f:	48 8b 4d a8          	mov    -0x58(%rbp),%rcx
     3a3:	c5 7d 64 69 60       	vpcmpgtb 0x60(%rcx),%ymm0,%ymm13
     3a8:	c4 41 1d db e5       	vpand  %ymm13,%ymm12,%ymm12
     3ad:	c4 41 3d eb c4       	vpor   %ymm12,%ymm8,%ymm8
     3b2:	48 83 ff 01          	cmp    $0x1,%rdi
     3b6:	0f 86 b1 00 00 00    	jbe    46d <_Z35four_columns_cmp_with_literal_nP_nSPmmPPhjmmS1_jmmS1_jmmS1_jmm+0x46d>
     3bc:	c4 e2 7d 17 ed       	vptest %ymm5,%ymm5
     3c1:	0f 84 a6 00 00 00    	je     46d <_Z35four_columns_cmp_with_literal_nP_nSPmmPPhjmmS1_jmmS1_jmmS1_jmm+0x46d>
     3c7:	4c 8b 4d a0          	mov    -0x60(%rbp),%r9
     3cb:	49 8d 0c 12          	lea    (%r10,%rdx,1),%rcx
     3cf:	48 83 ff 02          	cmp    $0x2,%rdi
     3d3:	c4 41 7d 6f 69 20    	vmovdqa 0x20(%r9),%ymm13
     3d9:	4c 8b 4b 10          	mov    0x10(%rbx),%r9
     3dd:	4d 8b 49 08          	mov    0x8(%r9),%r9
     3e1:	c4 41 7e 6f 34 09    	vmovdqu (%r9,%rcx,1),%ymm14
     3e7:	c4 c1 15 64 c6       	vpcmpgtb %ymm14,%ymm13,%ymm0
     3ec:	c5 55 db e0          	vpand  %ymm0,%ymm5,%ymm12
     3f0:	c4 41 15 74 fe       	vpcmpeqb %ymm14,%ymm13,%ymm15
     3f5:	c4 c1 4d eb f4       	vpor   %ymm12,%ymm6,%ymm6
     3fa:	c4 41 55 db f7       	vpand  %ymm15,%ymm5,%ymm14
     3ff:	76 6c                	jbe    46d <_Z35four_columns_cmp_with_literal_nP_nSPmmPPhjmmS1_jmmS1_jmmS1_jmm+0x46d>
     401:	c4 42 7d 17 f6       	vptest %ymm14,%ymm14
     406:	74 65                	je     46d <_Z35four_columns_cmp_with_literal_nP_nSPmmPPhjmmS1_jmmS1_jmmS1_jmm+0x46d>
     408:	4c 8b 4d a0          	mov    -0x60(%rbp),%r9
     40c:	49 8d 0c 12          	lea    (%r10,%rdx,1),%rcx
     410:	48 83 ff 03          	cmp    $0x3,%rdi
     414:	c4 41 7d 6f 61 40    	vmovdqa 0x40(%r9),%ymm12
     41a:	4c 8b 4b 10          	mov    0x10(%rbx),%r9
     41e:	4d 8b 49 10          	mov    0x10(%r9),%r9
     422:	c4 41 7e 6f 2c 09    	vmovdqu (%r9,%rcx,1),%ymm13
     428:	c4 c1 1d 64 c5       	vpcmpgtb %ymm13,%ymm12,%ymm0
     42d:	c5 8d db e8          	vpand  %ymm0,%ymm14,%ymm5
     431:	c4 41 1d 74 fd       	vpcmpeqb %ymm13,%ymm12,%ymm15
     436:	c5 cd eb f5          	vpor   %ymm5,%ymm6,%ymm6
     43a:	c4 c1 0d db ef       	vpand  %ymm15,%ymm14,%ymm5
     43f:	76 2c                	jbe    46d <_Z35four_columns_cmp_with_literal_nP_nSPmmPPhjmmS1_jmmS1_jmmS1_jmm+0x46d>
     441:	c4 e2 7d 17 ed       	vptest %ymm5,%ymm5
     446:	74 25                	je     46d <_Z35four_columns_cmp_with_literal_nP_nSPmmPPhjmmS1_jmmS1_jmmS1_jmm+0x46d>
     448:	4c 8b 4d a0          	mov    -0x60(%rbp),%r9
     44c:	49 8d 0c 12          	lea    (%r10,%rdx,1),%rcx
     450:	c4 c1 7d 6f 41 60    	vmovdqa 0x60(%r9),%ymm0
     456:	4c 8b 4b 10          	mov    0x10(%rbx),%r9
     45a:	4d 8b 49 18          	mov    0x18(%r9),%r9
     45e:	c4 41 7d 64 24 09    	vpcmpgtb (%r9,%rcx,1),%ymm0,%ymm12
     464:	c4 c1 55 db ec       	vpand  %ymm12,%ymm5,%ymm5
     469:	c5 cd eb f5          	vpor   %ymm5,%ymm6,%ymm6
     46d:	49 83 f8 01          	cmp    $0x1,%r8
     471:	0f 86 ad 00 00 00    	jbe    524 <_Z35four_columns_cmp_with_literal_nP_nSPmmPPhjmmS1_jmmS1_jmmS1_jmm+0x524>
     477:	c4 e2 7d 17 db       	vptest %ymm3,%ymm3
     47c:	0f 84 a2 00 00 00    	je     524 <_Z35four_columns_cmp_with_literal_nP_nSPmmPPhjmmS1_jmmS1_jmmS1_jmm+0x524>
     482:	4c 8b 4d b0          	mov    -0x50(%rbp),%r9
     486:	49 8d 0c 12          	lea    (%r10,%rdx,1),%rcx
     48a:	49 83 f8 02          	cmp    $0x2,%r8
     48e:	c4 41 7d 6f 61 20    	vmovdqa 0x20(%r9),%ymm12
     494:	4c 8b 4b 30          	mov    0x30(%rbx),%r9
     498:	4d 8b 49 08          	mov    0x8(%r9),%r9
     49c:	c4 41 7e 6f 2c 09    	vmovdqu (%r9,%rcx,1),%ymm13
     4a2:	c4 c1 15 64 c4       	vpcmpgtb %ymm12,%ymm13,%ymm0
     4a7:	c5 e5 db e8          	vpand  %ymm0,%ymm3,%ymm5
     4ab:	c4 41 1d 74 f5       	vpcmpeqb %ymm13,%ymm12,%ymm14
     4b0:	c5 dd eb e5          	vpor   %ymm5,%ymm4,%ymm4
     4b4:	c4 41 65 db ee       	vpand  %ymm14,%ymm3,%ymm13
     4b9:	76 69                	jbe    524 <_Z35four_columns_cmp_with_literal_nP_nSPmmPPhjmmS1_jmmS1_jmmS1_jmm+0x524>
     4bb:	c4 42 7d 17 ed       	vptest %ymm13,%ymm13
     4c0:	74 62                	je     524 <_Z35four_columns_cmp_with_literal_nP_nSPmmPPhjmmS1_jmmS1_jmmS1_jmm+0x524>
     4c2:	4c 8b 4d b0          	mov    -0x50(%rbp),%r9
     4c6:	49 8d 0c 12          	lea    (%r10,%rdx,1),%rcx
     4ca:	49 83 f8 03          	cmp    $0x3,%r8
     4ce:	c4 c1 7d 6f 69 40    	vmovdqa 0x40(%r9),%ymm5
     4d4:	4c 8b 4b 30          	mov    0x30(%rbx),%r9
     4d8:	4d 8b 49 10          	mov    0x10(%r9),%r9
     4dc:	c4 41 7e 6f 24 09    	vmovdqu (%r9,%rcx,1),%ymm12
     4e2:	c5 9d 64 c5          	vpcmpgtb %ymm5,%ymm12,%ymm0
     4e6:	c5 95 db d8          	vpand  %ymm0,%ymm13,%ymm3
     4ea:	c4 41 55 74 f4       	vpcmpeqb %ymm12,%ymm5,%ymm14
     4ef:	c5 dd eb e3          	vpor   %ymm3,%ymm4,%ymm4
     4f3:	c4 c1 15 db de       	vpand  %ymm14,%ymm13,%ymm3
     4f8:	76 2a                	jbe    524 <_Z35four_columns_cmp_with_literal_nP_nSPmmPPhjmmS1_jmmS1_jmmS1_jmm+0x524>
     4fa:	c4 e2 7d 17 db       	vptest %ymm3,%ymm3
     4ff:	74 23                	je     524 <_Z35four_columns_cmp_with_literal_nP_nSPmmPPhjmmS1_jmmS1_jmmS1_jmm+0x524>
     501:	4c 8b 4b 30          	mov    0x30(%rbx),%r9
     505:	49 8d 0c 12          	lea    (%r10,%rdx,1),%rcx
     509:	4d 8b 49 18          	mov    0x18(%r9),%r9
     50d:	c4 c1 7e 6f 04 09    	vmovdqu (%r9,%rcx,1),%ymm0
     513:	48 8b 4d b0          	mov    -0x50(%rbp),%rcx
     517:	c5 fd 64 69 60       	vpcmpgtb 0x60(%rcx),%ymm0,%ymm5
     51c:	c5 e5 db dd          	vpand  %ymm5,%ymm3,%ymm3
     520:	c5 dd eb e3          	vpor   %ymm3,%ymm4,%ymm4
     524:	48 83 fe 01          	cmp    $0x1,%rsi
     528:	0f 86 b6 00 00 00    	jbe    5e4 <_Z35four_columns_cmp_with_literal_nP_nSPmmPPhjmmS1_jmmS1_jmmS1_jmm+0x5e4>
     52e:	c4 e2 7d 17 c9       	vptest %ymm1,%ymm1
     533:	0f 84 ab 00 00 00    	je     5e4 <_Z35four_columns_cmp_with_literal_nP_nSPmmPPhjmmS1_jmmS1_jmmS1_jmm+0x5e4>
     539:	4c 8b 8d 70 ff ff ff 	mov    -0x90(%rbp),%r9
     540:	49 8d 0c 12          	lea    (%r10,%rdx,1),%rcx
     544:	48 83 fe 02          	cmp    $0x2,%rsi
     548:	c4 c1 7d 6f 69 20    	vmovdqa 0x20(%r9),%ymm5
     54e:	4c 8b 4b 50          	mov    0x50(%rbx),%r9
     552:	4d 8b 49 08          	mov    0x8(%r9),%r9
     556:	c4 41 7e 6f 24 09    	vmovdqu (%r9,%rcx,1),%ymm12
     55c:	c4 c1 55 64 c4       	vpcmpgtb %ymm12,%ymm5,%ymm0
     561:	c5 f5 db d8          	vpand  %ymm0,%ymm1,%ymm3
     565:	c4 41 55 74 ec       	vpcmpeqb %ymm12,%ymm5,%ymm13
     56a:	c5 ed eb d3          	vpor   %ymm3,%ymm2,%ymm2
     56e:	c4 41 75 db e5       	vpand  %ymm13,%ymm1,%ymm12
     573:	76 6f                	jbe    5e4 <_Z35four_columns_cmp_with_literal_nP_nSPmmPPhjmmS1_jmmS1_jmmS1_jmm+0x5e4>
     575:	c4 42 7d 17 e4       	vptest %ymm12,%ymm12
     57a:	74 68                	je     5e4 <_Z35four_columns_cmp_with_literal_nP_nSPmmPPhjmmS1_jmmS1_jmmS1_jmm+0x5e4>
     57c:	4c 8b 8d 70 ff ff ff 	mov    -0x90(%rbp),%r9
     583:	49 8d 0c 12          	lea    (%r10,%rdx,1),%rcx
     587:	48 83 fe 03          	cmp    $0x3,%rsi
     58b:	c4 c1 7d 6f 59 40    	vmovdqa 0x40(%r9),%ymm3
     591:	4c 8b 4b 50          	mov    0x50(%rbx),%r9
     595:	4d 8b 49 10          	mov    0x10(%r9),%r9
     599:	c4 c1 7e 6f 2c 09    	vmovdqu (%r9,%rcx,1),%ymm5
     59f:	c5 e5 64 c5          	vpcmpgtb %ymm5,%ymm3,%ymm0
     5a3:	c5 9d db c8          	vpand  %ymm0,%ymm12,%ymm1
     5a7:	c5 65 74 ed          	vpcmpeqb %ymm5,%ymm3,%ymm13
     5ab:	c5 ed eb d1          	vpor   %ymm1,%ymm2,%ymm2
     5af:	c4 c1 1d db cd       	vpand  %ymm13,%ymm12,%ymm1
     5b4:	76 2e                	jbe    5e4 <_Z35four_columns_cmp_with_literal_nP_nSPmmPPhjmmS1_jmmS1_jmmS1_jmm+0x5e4>
     5b6:	c4 e2 7d 17 c9       	vptest %ymm1,%ymm1
     5bb:	74 27                	je     5e4 <_Z35four_columns_cmp_with_literal_nP_nSPmmPPhjmmS1_jmmS1_jmmS1_jmm+0x5e4>
     5bd:	4c 8b 8d 70 ff ff ff 	mov    -0x90(%rbp),%r9
     5c4:	49 8d 0c 12          	lea    (%r10,%rdx,1),%rcx
     5c8:	c4 c1 7d 6f 41 60    	vmovdqa 0x60(%r9),%ymm0
     5ce:	4c 8b 4b 50          	mov    0x50(%rbx),%r9
     5d2:	4d 8b 49 18          	mov    0x18(%r9),%r9
     5d6:	c4 c1 7d 64 1c 09    	vpcmpgtb (%r9,%rcx,1),%ymm0,%ymm3
     5dc:	c5 f5 db cb          	vpand  %ymm3,%ymm1,%ymm1
     5e0:	c5 ed eb d1          	vpor   %ymm1,%ymm2,%ymm2
     5e4:	c5 bd db c6          	vpand  %ymm6,%ymm8,%ymm0
     5e8:	89 d1                	mov    %edx,%ecx
     5ea:	c5 dd db ca          	vpand  %ymm2,%ymm4,%ymm1
     5ee:	c5 fd db d1          	vpand  %ymm1,%ymm0,%ymm2
     5f2:	48 83 c2 20          	add    $0x20,%rdx
     5f6:	c5 7d d7 ca          	vpmovmskb %ymm2,%r9d
     5fa:	49 d3 e1             	shl    %cl,%r9
     5fd:	49 0b c1             	or     %r9,%rax
     600:	48 83 fa 40          	cmp    $0x40,%rdx
     604:	0f 82 b0 fc ff ff    	jb     2ba <_Z35four_columns_cmp_with_literal_nP_nSPmmPPhjmmS1_jmmS1_jmmS1_jmm+0x2ba>
     60a:	48 8b 4d c8          	mov    -0x38(%rbp),%rcx
     60e:	49 83 c2 40          	add    $0x40,%r10
     612:	48 8b 7d c0          	mov    -0x40(%rbp),%rdi
     616:	49 83 c5 40          	add    $0x40,%r13
     61a:	4c 8b 4d b8          	mov    -0x48(%rbp),%r9
     61e:	49 83 c6 40          	add    $0x40,%r14
     622:	48 89 04 cf          	mov    %rax,(%rdi,%rcx,8)
     626:	49 83 c7 40          	add    $0x40,%r15
     62a:	49 83 c3 40          	add    $0x40,%r11
     62e:	48 ff c1             	inc    %rcx
     631:	4d 3b d1             	cmp    %r9,%r10
     634:	0f 82 6c fc ff ff    	jb     2a6 <_Z35four_columns_cmp_with_literal_nP_nSPmmPPhjmmS1_jmmS1_jmmS1_jmm+0x2a6>
     63a:	48 8b 85 70 ff ff ff 	mov    -0x90(%rbp),%rax
     641:	48 89 c2             	mov    %rax,%rdx
     644:	48 8b 45 90          	mov    -0x70(%rbp),%rax
     648:	48 83 c0 1f          	add    $0x1f,%rax
     64c:	48 83 e0 e0          	and    $0xffffffffffffffe0,%rax
     650:	48 03 e0             	add    %rax,%rsp
     653:	48 8b 55 b0          	mov    -0x50(%rbp),%rdx
     657:	48 8b 45 88          	mov    -0x78(%rbp),%rax
     65b:	48 83 c0 1f          	add    $0x1f,%rax
     65f:	48 83 e0 e0          	and    $0xffffffffffffffe0,%rax
     663:	48 03 e0             	add    %rax,%rsp
     666:	48 8b 55 a0          	mov    -0x60(%rbp),%rdx
     66a:	48 8b 45 80          	mov    -0x80(%rbp),%rax
     66e:	48 83 c0 1f          	add    $0x1f,%rax
     672:	48 83 e0 e0          	and    $0xffffffffffffffe0,%rax
     676:	48 03 e0             	add    %rax,%rsp
     679:	48 8b 55 a8          	mov    -0x58(%rbp),%rdx
     67d:	48 8b 85 78 ff ff ff 	mov    -0x88(%rbp),%rax
     684:	48 83 c0 1f          	add    $0x1f,%rax
     688:	48 83 e0 e0          	and    $0xffffffffffffffe0,%rax
     68c:	48 03 e0             	add    %rax,%rsp
     68f:	48 8d 65 e0          	lea    -0x20(%rbp),%rsp
     693:	41 5f                	pop    %r15
     695:	41 5e                	pop    %r14
     697:	41 5d                	pop    %r13
     699:	41 5c                	pop    %r12
     69b:	5d                   	pop    %rbp
     69c:	48 89 dc             	mov    %rbx,%rsp
     69f:	5b                   	pop    %rbx
     6a0:	c3                   	retq   
     6a1:	0f 1f 84 00 00 00 00 	nopl   0x0(%rax,%rax,1)
     6a8:	00 
     6a9:	0f 1f 80 00 00 00 00 	nopl   0x0(%rax)

00000000000006b0 <_Z34four_columns_cmp_with_literal_nP_SPmmPPhjmmS1_jmmS1_jmmS1_jmm>:
     6b0:	53                   	push   %rbx
     6b1:	48 89 e3             	mov    %rsp,%rbx
     6b4:	48 83 e4 e0          	and    $0xffffffffffffffe0,%rsp
     6b8:	55                   	push   %rbp
     6b9:	55                   	push   %rbp
     6ba:	48 8b 6b 08          	mov    0x8(%rbx),%rbp
     6be:	48 89 6c 24 08       	mov    %rbp,0x8(%rsp)
     6c3:	48 89 e5             	mov    %rsp,%rbp
     6c6:	41 54                	push   %r12
     6c8:	41 55                	push   %r13
     6ca:	41 56                	push   %r14
     6cc:	41 57                	push   %r15
     6ce:	48 83 ec 70          	sub    $0x70,%rsp
     6d2:	4d 89 c4             	mov    %r8,%r12
     6d5:	4c 89 e0             	mov    %r12,%rax
     6d8:	4d 89 cd             	mov    %r9,%r13
     6db:	48 c1 e0 05          	shl    $0x5,%rax
     6df:	49 89 f1             	mov    %rsi,%r9
     6e2:	48 89 55 98          	mov    %rdx,-0x68(%rbp)
     6e6:	48 89 85 78 ff ff ff 	mov    %rax,-0x88(%rbp)
     6ed:	48 83 c0 1f          	add    $0x1f,%rax
     6f1:	48 83 e0 e0          	and    $0xffffffffffffffe0,%rax
     6f5:	48 2b e0             	sub    %rax,%rsp
     6f8:	48 89 e0             	mov    %rsp,%rax
     6fb:	48 89 45 a8          	mov    %rax,-0x58(%rbp)
     6ff:	41 89 ce             	mov    %ecx,%r14d
     702:	44 89 e9             	mov    %r13d,%ecx
     705:	48 8b 43 20          	mov    0x20(%rbx),%rax
     709:	49 d3 e6             	shl    %cl,%r14
     70c:	48 c1 e0 05          	shl    $0x5,%rax
     710:	48 89 45 80          	mov    %rax,-0x80(%rbp)
     714:	48 83 c0 1f          	add    $0x1f,%rax
     718:	48 83 e0 e0          	and    $0xffffffffffffffe0,%rax
     71c:	48 2b e0             	sub    %rax,%rsp
     71f:	48 89 e0             	mov    %rsp,%rax
     722:	48 89 45 a0          	mov    %rax,-0x60(%rbp)
     726:	4c 8b 43 40          	mov    0x40(%rbx),%r8
     72a:	4c 89 c0             	mov    %r8,%rax
     72d:	8b 4b 28             	mov    0x28(%rbx),%ecx
     730:	44 8b 7b 18          	mov    0x18(%rbx),%r15d
     734:	49 d3 e7             	shl    %cl,%r15
     737:	48 c1 e0 05          	shl    $0x5,%rax
     73b:	48 89 45 88          	mov    %rax,-0x78(%rbp)
     73f:	48 83 c0 1f          	add    $0x1f,%rax
     743:	48 83 e0 e0          	and    $0xffffffffffffffe0,%rax
     747:	48 2b e0             	sub    %rax,%rsp
     74a:	48 89 e0             	mov    %rsp,%rax
     74d:	48 89 45 b0          	mov    %rax,-0x50(%rbp)
     751:	48 8b 73 60          	mov    0x60(%rbx),%rsi
     755:	48 89 f0             	mov    %rsi,%rax
     758:	8b 4b 48             	mov    0x48(%rbx),%ecx
     75b:	44 8b 6b 38          	mov    0x38(%rbx),%r13d
     75f:	49 d3 e5             	shl    %cl,%r13
     762:	48 c1 e0 05          	shl    $0x5,%rax
     766:	48 89 45 90          	mov    %rax,-0x70(%rbp)
     76a:	48 83 c0 1f          	add    $0x1f,%rax
     76e:	48 83 e0 e0          	and    $0xffffffffffffffe0,%rax
     772:	48 2b e0             	sub    %rax,%rsp
     775:	48 89 e0             	mov    %rsp,%rax
     778:	8b 4b 68             	mov    0x68(%rbx),%ecx
     77b:	44 8b 53 58          	mov    0x58(%rbx),%r10d
     77f:	49 d3 e2             	shl    %cl,%r10
     782:	33 c9                	xor    %ecx,%ecx
     784:	33 d2                	xor    %edx,%edx
     786:	4d 85 e4             	test   %r12,%r12
     789:	76 5d                	jbe    7e8 <_Z34four_columns_cmp_with_literal_nP_SPmmPPhjmmS1_jmmS1_jmmS1_jmm+0x138>
     78b:	4c 89 4d b8          	mov    %r9,-0x48(%rbp)
     78f:	4e 8d 1c e5 f8 ff ff 	lea    -0x8(,%r12,8),%r11
     796:	ff 
     797:	48 8b 75 a8          	mov    -0x58(%rbp),%rsi
     79b:	49 89 c8             	mov    %rcx,%r8
     79e:	44 89 d9             	mov    %r11d,%ecx
     7a1:	45 89 f1             	mov    %r14d,%r9d
     7a4:	41 d3 e9             	shr    %cl,%r9d
     7a7:	49 ff c0             	inc    %r8
     7aa:	41 83 f1 80          	xor    $0xffffff80,%r9d
     7ae:	49 83 c3 f8          	add    $0xfffffffffffffff8,%r11
     7b2:	45 0f b6 c9          	movzbl %r9b,%r9d
     7b6:	c4 c1 79 6e c1       	vmovd  %r9d,%xmm0
     7bb:	c5 f9 60 c8          	vpunpcklbw %xmm0,%xmm0,%xmm1
     7bf:	c5 f1 60 d1          	vpunpcklbw %xmm1,%xmm1,%xmm2
     7c3:	c5 f9 70 da 00       	vpshufd $0x0,%xmm2,%xmm3
     7c8:	c4 e3 65 18 e3 01    	vinsertf128 $0x1,%xmm3,%ymm3,%ymm4
     7ce:	c5 fc 29 24 32       	vmovaps %ymm4,(%rdx,%rsi,1)
     7d3:	48 83 c2 20          	add    $0x20,%rdx
     7d7:	4d 3b c4             	cmp    %r12,%r8
     7da:	72 c2                	jb     79e <_Z34four_columns_cmp_with_literal_nP_SPmmPPhjmmS1_jmmS1_jmmS1_jmm+0xee>
     7dc:	48 8b 73 60          	mov    0x60(%rbx),%rsi
     7e0:	4c 8b 43 40          	mov    0x40(%rbx),%r8
     7e4:	4c 8b 4d b8          	mov    -0x48(%rbp),%r9
     7e8:	33 d2                	xor    %edx,%edx
     7ea:	45 33 f6             	xor    %r14d,%r14d
     7ed:	48 83 7b 20 00       	cmpq   $0x0,0x20(%rbx)
     7f2:	76 68                	jbe    85c <_Z34four_columns_cmp_with_literal_nP_SPmmPPhjmmS1_jmmS1_jmmS1_jmm+0x1ac>
     7f4:	48 8b 4b 20          	mov    0x20(%rbx),%rcx
     7f8:	49 89 c8             	mov    %rcx,%r8
     7fb:	4c 89 a5 70 ff ff ff 	mov    %r12,-0x90(%rbp)
     802:	48 8b 75 a0          	mov    -0x60(%rbp),%rsi
     806:	4c 8d 1c cd f8 ff ff 	lea    -0x8(,%rcx,8),%r11
     80d:	ff 
     80e:	44 89 d9             	mov    %r11d,%ecx
     811:	45 89 fc             	mov    %r15d,%r12d
     814:	41 d3 ec             	shr    %cl,%r12d
     817:	48 ff c2             	inc    %rdx
     81a:	41 83 f4 80          	xor    $0xffffff80,%r12d
     81e:	49 83 c3 f8          	add    $0xfffffffffffffff8,%r11
     822:	45 0f b6 e4          	movzbl %r12b,%r12d
     826:	c4 c1 79 6e c4       	vmovd  %r12d,%xmm0
     82b:	c5 f9 60 c8          	vpunpcklbw %xmm0,%xmm0,%xmm1
     82f:	c5 f1 60 d1          	vpunpcklbw %xmm1,%xmm1,%xmm2
     833:	c5 f9 70 da 00       	vpshufd $0x0,%xmm2,%xmm3
     838:	c4 e3 65 18 e3 01    	vinsertf128 $0x1,%xmm3,%ymm3,%ymm4
     83e:	c4 c1 7c 29 24 36    	vmovaps %ymm4,(%r14,%rsi,1)
     844:	49 83 c6 20          	add    $0x20,%r14
     848:	49 3b d0             	cmp    %r8,%rdx
     84b:	72 c1                	jb     80e <_Z34four_columns_cmp_with_literal_nP_SPmmPPhjmmS1_jmmS1_jmmS1_jmm+0x15e>
     84d:	48 8b 73 60          	mov    0x60(%rbx),%rsi
     851:	4c 8b 43 40          	mov    0x40(%rbx),%r8
     855:	4c 8b a5 70 ff ff ff 	mov    -0x90(%rbp),%r12
     85c:	45 33 f6             	xor    %r14d,%r14d
     85f:	45 33 ff             	xor    %r15d,%r15d
     862:	4d 85 c0             	test   %r8,%r8
     865:	76 4b                	jbe    8b2 <_Z34four_columns_cmp_with_literal_nP_SPmmPPhjmmS1_jmmS1_jmmS1_jmm+0x202>
     867:	48 8b 75 b0          	mov    -0x50(%rbp),%rsi
     86b:	4e 8d 1c c5 f8 ff ff 	lea    -0x8(,%r8,8),%r11
     872:	ff 
     873:	44 89 d9             	mov    %r11d,%ecx
     876:	44 89 ea             	mov    %r13d,%edx
     879:	d3 ea                	shr    %cl,%edx
     87b:	49 ff c6             	inc    %r14
     87e:	83 f2 80             	xor    $0xffffff80,%edx
     881:	49 83 c3 f8          	add    $0xfffffffffffffff8,%r11
     885:	0f b6 d2             	movzbl %dl,%edx
     888:	c5 f9 6e c2          	vmovd  %edx,%xmm0
     88c:	c5 f9 60 c8          	vpunpcklbw %xmm0,%xmm0,%xmm1
     890:	c5 f1 60 d1          	vpunpcklbw %xmm1,%xmm1,%xmm2
     894:	c5 f9 70 da 00       	vpshufd $0x0,%xmm2,%xmm3
     899:	c4 e3 65 18 e3 01    	vinsertf128 $0x1,%xmm3,%ymm3,%ymm4
     89f:	c4 c1 7c 29 24 37    	vmovaps %ymm4,(%r15,%rsi,1)
     8a5:	49 83 c7 20          	add    $0x20,%r15
     8a9:	4d 3b f0             	cmp    %r8,%r14
     8ac:	72 c5                	jb     873 <_Z34four_columns_cmp_with_literal_nP_SPmmPPhjmmS1_jmmS1_jmmS1_jmm+0x1c3>
     8ae:	48 8b 73 60          	mov    0x60(%rbx),%rsi
     8b2:	45 33 ed             	xor    %r13d,%r13d
     8b5:	45 33 db             	xor    %r11d,%r11d
     8b8:	48 85 f6             	test   %rsi,%rsi
     8bb:	76 47                	jbe    904 <_Z34four_columns_cmp_with_literal_nP_SPmmPPhjmmS1_jmmS1_jmmS1_jmm+0x254>
     8bd:	4c 8d 34 f5 f8 ff ff 	lea    -0x8(,%rsi,8),%r14
     8c4:	ff 
     8c5:	44 89 f1             	mov    %r14d,%ecx
     8c8:	45 89 d7             	mov    %r10d,%r15d
     8cb:	41 d3 ef             	shr    %cl,%r15d
     8ce:	49 ff c5             	inc    %r13
     8d1:	41 83 f7 80          	xor    $0xffffff80,%r15d
     8d5:	49 83 c6 f8          	add    $0xfffffffffffffff8,%r14
     8d9:	45 0f b6 ff          	movzbl %r15b,%r15d
     8dd:	c4 c1 79 6e c7       	vmovd  %r15d,%xmm0
     8e2:	c5 f9 60 c8          	vpunpcklbw %xmm0,%xmm0,%xmm1
     8e6:	c5 f1 60 d1          	vpunpcklbw %xmm1,%xmm1,%xmm2
     8ea:	c5 f9 70 da 00       	vpshufd $0x0,%xmm2,%xmm3
     8ef:	c4 e3 65 18 e3 01    	vinsertf128 $0x1,%xmm3,%ymm3,%ymm4
     8f5:	c4 c1 7c 29 24 03    	vmovaps %ymm4,(%r11,%rax,1)
     8fb:	49 83 c3 20          	add    $0x20,%r11
     8ff:	4c 3b ee             	cmp    %rsi,%r13
     902:	72 c1                	jb     8c5 <_Z34four_columns_cmp_with_literal_nP_SPmmPPhjmmS1_jmmS1_jmmS1_jmm+0x215>
     904:	45 33 d2             	xor    %r10d,%r10d
     907:	33 c9                	xor    %ecx,%ecx
     909:	4d 85 c9             	test   %r9,%r9
     90c:	0f 86 e0 03 00 00    	jbe    cf2 <_Z34four_columns_cmp_with_literal_nP_SPmmPPhjmmS1_jmmS1_jmmS1_jmm+0x642>
     912:	4c 8b 6d a8          	mov    -0x58(%rbp),%r13
     916:	4c 8b 5d b0          	mov    -0x50(%rbp),%r11
     91a:	4c 8b 75 a0          	mov    -0x60(%rbp),%r14
     91e:	c4 41 7d 6f 55 00    	vmovdqa 0x0(%r13),%ymm10
     924:	c4 41 7d 6f 1b       	vmovdqa (%r11),%ymm11
     929:	c4 41 7d 6f 0e       	vmovdqa (%r14),%ymm9
     92e:	c5 fd 6f 38          	vmovdqa (%rax),%ymm7
     932:	48 8b 53 10          	mov    0x10(%rbx),%rdx
     936:	4c 8b 7b 30          	mov    0x30(%rbx),%r15
     93a:	4c 8b 5b 50          	mov    0x50(%rbx),%r11
     93e:	4c 8b 6d 98          	mov    -0x68(%rbp),%r13
     942:	4c 8b 32             	mov    (%rdx),%r14
     945:	4d 8b 3f             	mov    (%r15),%r15
     948:	4d 8b 6d 00          	mov    0x0(%r13),%r13
     94c:	4d 8b 1b             	mov    (%r11),%r11
     94f:	48 89 85 70 ff ff ff 	mov    %rax,-0x90(%rbp)
     956:	33 c0                	xor    %eax,%eax
     958:	48 89 7d c0          	mov    %rdi,-0x40(%rbp)
     95c:	33 d2                	xor    %edx,%edx
     95e:	48 89 4d c8          	mov    %rcx,-0x38(%rbp)
     962:	4c 89 4d b8          	mov    %r9,-0x48(%rbp)
     966:	48 8b 7b 20          	mov    0x20(%rbx),%rdi
     96a:	c4 a1 7e 6f 04 2a    	vmovdqu (%rdx,%r13,1),%ymm0
     970:	49 83 fc 01          	cmp    $0x1,%r12
     974:	c4 a1 7e 6f 24 32    	vmovdqu (%rdx,%r14,1),%ymm4
     97a:	c4 a1 7e 6f 14 3a    	vmovdqu (%rdx,%r15,1),%ymm2
     980:	c4 a1 7e 6f 0c 1a    	vmovdqu (%rdx,%r11,1),%ymm1
     986:	c4 41 7d 64 c2       	vpcmpgtb %ymm10,%ymm0,%ymm8
     98b:	c5 ad 74 c0          	vpcmpeqb %ymm0,%ymm10,%ymm0
     98f:	c5 b5 64 f4          	vpcmpgtb %ymm4,%ymm9,%ymm6
     993:	c5 b5 74 ec          	vpcmpeqb %ymm4,%ymm9,%ymm5
     997:	c4 c1 6d 64 e3       	vpcmpgtb %ymm11,%ymm2,%ymm4
     99c:	c5 a5 74 da          	vpcmpeqb %ymm2,%ymm11,%ymm3
     9a0:	c5 c5 64 d1          	vpcmpgtb %ymm1,%ymm7,%ymm2
     9a4:	c5 c5 74 c9          	vpcmpeqb %ymm1,%ymm7,%ymm1
     9a8:	0f 86 b4 00 00 00    	jbe    a62 <_Z34four_columns_cmp_with_literal_nP_SPmmPPhjmmS1_jmmS1_jmmS1_jmm+0x3b2>
     9ae:	c4 e2 7d 17 c0       	vptest %ymm0,%ymm0
     9b3:	0f 84 a9 00 00 00    	je     a62 <_Z34four_columns_cmp_with_literal_nP_SPmmPPhjmmS1_jmmS1_jmmS1_jmm+0x3b2>
     9b9:	4c 8b 4d a8          	mov    -0x58(%rbp),%r9
     9bd:	49 8d 0c 12          	lea    (%r10,%rdx,1),%rcx
     9c1:	49 83 fc 02          	cmp    $0x2,%r12
     9c5:	c4 41 7d 6f 71 20    	vmovdqa 0x20(%r9),%ymm14
     9cb:	4c 8b 4d 98          	mov    -0x68(%rbp),%r9
     9cf:	4d 8b 49 08          	mov    0x8(%r9),%r9
     9d3:	c4 41 7e 6f 3c 09    	vmovdqu (%r9,%rcx,1),%ymm15
     9d9:	c4 41 05 64 e6       	vpcmpgtb %ymm14,%ymm15,%ymm12
     9de:	c4 41 7d db ec       	vpand  %ymm12,%ymm0,%ymm13
     9e3:	c4 41 0d 74 e7       	vpcmpeqb %ymm15,%ymm14,%ymm12
     9e8:	c4 41 3d eb c5       	vpor   %ymm13,%ymm8,%ymm8
     9ed:	c4 c1 7d db c4       	vpand  %ymm12,%ymm0,%ymm0
     9f2:	76 6e                	jbe    a62 <_Z34four_columns_cmp_with_literal_nP_SPmmPPhjmmS1_jmmS1_jmmS1_jmm+0x3b2>
     9f4:	c4 e2 7d 17 c0       	vptest %ymm0,%ymm0
     9f9:	74 67                	je     a62 <_Z34four_columns_cmp_with_literal_nP_SPmmPPhjmmS1_jmmS1_jmmS1_jmm+0x3b2>
     9fb:	4c 8b 4d a8          	mov    -0x58(%rbp),%r9
     9ff:	49 8d 0c 12          	lea    (%r10,%rdx,1),%rcx
     a03:	49 83 fc 03          	cmp    $0x3,%r12
     a07:	c4 41 7d 6f 71 40    	vmovdqa 0x40(%r9),%ymm14
     a0d:	4c 8b 4d 98          	mov    -0x68(%rbp),%r9
     a11:	4d 8b 49 10          	mov    0x10(%r9),%r9
     a15:	c4 41 7e 6f 3c 09    	vmovdqu (%r9,%rcx,1),%ymm15
     a1b:	c4 41 05 64 e6       	vpcmpgtb %ymm14,%ymm15,%ymm12
     a20:	c4 41 7d db ec       	vpand  %ymm12,%ymm0,%ymm13
     a25:	c4 41 0d 74 e7       	vpcmpeqb %ymm15,%ymm14,%ymm12
     a2a:	c4 41 3d eb c5       	vpor   %ymm13,%ymm8,%ymm8
     a2f:	c4 41 7d db e4       	vpand  %ymm12,%ymm0,%ymm12
     a34:	76 2c                	jbe    a62 <_Z34four_columns_cmp_with_literal_nP_SPmmPPhjmmS1_jmmS1_jmmS1_jmm+0x3b2>
     a36:	c4 42 7d 17 e4       	vptest %ymm12,%ymm12
     a3b:	74 25                	je     a62 <_Z34four_columns_cmp_with_literal_nP_SPmmPPhjmmS1_jmmS1_jmmS1_jmm+0x3b2>
     a3d:	4c 8b 4d 98          	mov    -0x68(%rbp),%r9
     a41:	49 8d 0c 12          	lea    (%r10,%rdx,1),%rcx
     a45:	4d 8b 49 18          	mov    0x18(%r9),%r9
     a49:	c4 c1 7e 6f 04 09    	vmovdqu (%r9,%rcx,1),%ymm0
     a4f:	48 8b 4d a8          	mov    -0x58(%rbp),%rcx
     a53:	c5 7d 64 69 60       	vpcmpgtb 0x60(%rcx),%ymm0,%ymm13
     a58:	c4 41 1d db e5       	vpand  %ymm13,%ymm12,%ymm12
     a5d:	c4 41 3d eb c4       	vpor   %ymm12,%ymm8,%ymm8
     a62:	48 83 ff 01          	cmp    $0x1,%rdi
     a66:	0f 86 b1 00 00 00    	jbe    b1d <_Z34four_columns_cmp_with_literal_nP_SPmmPPhjmmS1_jmmS1_jmmS1_jmm+0x46d>
     a6c:	c4 e2 7d 17 ed       	vptest %ymm5,%ymm5
     a71:	0f 84 a6 00 00 00    	je     b1d <_Z34four_columns_cmp_with_literal_nP_SPmmPPhjmmS1_jmmS1_jmmS1_jmm+0x46d>
     a77:	4c 8b 4d a0          	mov    -0x60(%rbp),%r9
     a7b:	49 8d 0c 12          	lea    (%r10,%rdx,1),%rcx
     a7f:	48 83 ff 02          	cmp    $0x2,%rdi
     a83:	c4 41 7d 6f 69 20    	vmovdqa 0x20(%r9),%ymm13
     a89:	4c 8b 4b 10          	mov    0x10(%rbx),%r9
     a8d:	4d 8b 49 08          	mov    0x8(%r9),%r9
     a91:	c4 41 7e 6f 34 09    	vmovdqu (%r9,%rcx,1),%ymm14
     a97:	c4 c1 15 64 c6       	vpcmpgtb %ymm14,%ymm13,%ymm0
     a9c:	c5 55 db e0          	vpand  %ymm0,%ymm5,%ymm12
     aa0:	c4 41 15 74 fe       	vpcmpeqb %ymm14,%ymm13,%ymm15
     aa5:	c4 c1 4d eb f4       	vpor   %ymm12,%ymm6,%ymm6
     aaa:	c4 41 55 db f7       	vpand  %ymm15,%ymm5,%ymm14
     aaf:	76 6c                	jbe    b1d <_Z34four_columns_cmp_with_literal_nP_SPmmPPhjmmS1_jmmS1_jmmS1_jmm+0x46d>
     ab1:	c4 42 7d 17 f6       	vptest %ymm14,%ymm14
     ab6:	74 65                	je     b1d <_Z34four_columns_cmp_with_literal_nP_SPmmPPhjmmS1_jmmS1_jmmS1_jmm+0x46d>
     ab8:	4c 8b 4d a0          	mov    -0x60(%rbp),%r9
     abc:	49 8d 0c 12          	lea    (%r10,%rdx,1),%rcx
     ac0:	48 83 ff 03          	cmp    $0x3,%rdi
     ac4:	c4 41 7d 6f 61 40    	vmovdqa 0x40(%r9),%ymm12
     aca:	4c 8b 4b 10          	mov    0x10(%rbx),%r9
     ace:	4d 8b 49 10          	mov    0x10(%r9),%r9
     ad2:	c4 41 7e 6f 2c 09    	vmovdqu (%r9,%rcx,1),%ymm13
     ad8:	c4 c1 1d 64 c5       	vpcmpgtb %ymm13,%ymm12,%ymm0
     add:	c5 8d db e8          	vpand  %ymm0,%ymm14,%ymm5
     ae1:	c4 41 1d 74 fd       	vpcmpeqb %ymm13,%ymm12,%ymm15
     ae6:	c5 cd eb f5          	vpor   %ymm5,%ymm6,%ymm6
     aea:	c4 c1 0d db ef       	vpand  %ymm15,%ymm14,%ymm5
     aef:	76 2c                	jbe    b1d <_Z34four_columns_cmp_with_literal_nP_SPmmPPhjmmS1_jmmS1_jmmS1_jmm+0x46d>
     af1:	c4 e2 7d 17 ed       	vptest %ymm5,%ymm5
     af6:	74 25                	je     b1d <_Z34four_columns_cmp_with_literal_nP_SPmmPPhjmmS1_jmmS1_jmmS1_jmm+0x46d>
     af8:	4c 8b 4d a0          	mov    -0x60(%rbp),%r9
     afc:	49 8d 0c 12          	lea    (%r10,%rdx,1),%rcx
     b00:	c4 c1 7d 6f 41 60    	vmovdqa 0x60(%r9),%ymm0
     b06:	4c 8b 4b 10          	mov    0x10(%rbx),%r9
     b0a:	4d 8b 49 18          	mov    0x18(%r9),%r9
     b0e:	c4 41 7d 64 24 09    	vpcmpgtb (%r9,%rcx,1),%ymm0,%ymm12
     b14:	c4 c1 55 db ec       	vpand  %ymm12,%ymm5,%ymm5
     b19:	c5 cd eb f5          	vpor   %ymm5,%ymm6,%ymm6
     b1d:	49 83 f8 01          	cmp    $0x1,%r8
     b21:	0f 86 ad 00 00 00    	jbe    bd4 <_Z34four_columns_cmp_with_literal_nP_SPmmPPhjmmS1_jmmS1_jmmS1_jmm+0x524>
     b27:	c4 e2 7d 17 db       	vptest %ymm3,%ymm3
     b2c:	0f 84 a2 00 00 00    	je     bd4 <_Z34four_columns_cmp_with_literal_nP_SPmmPPhjmmS1_jmmS1_jmmS1_jmm+0x524>
     b32:	4c 8b 4d b0          	mov    -0x50(%rbp),%r9
     b36:	49 8d 0c 12          	lea    (%r10,%rdx,1),%rcx
     b3a:	49 83 f8 02          	cmp    $0x2,%r8
     b3e:	c4 41 7d 6f 61 20    	vmovdqa 0x20(%r9),%ymm12
     b44:	4c 8b 4b 30          	mov    0x30(%rbx),%r9
     b48:	4d 8b 49 08          	mov    0x8(%r9),%r9
     b4c:	c4 41 7e 6f 2c 09    	vmovdqu (%r9,%rcx,1),%ymm13
     b52:	c4 c1 15 64 c4       	vpcmpgtb %ymm12,%ymm13,%ymm0
     b57:	c5 e5 db e8          	vpand  %ymm0,%ymm3,%ymm5
     b5b:	c4 41 1d 74 f5       	vpcmpeqb %ymm13,%ymm12,%ymm14
     b60:	c5 dd eb e5          	vpor   %ymm5,%ymm4,%ymm4
     b64:	c4 41 65 db ee       	vpand  %ymm14,%ymm3,%ymm13
     b69:	76 69                	jbe    bd4 <_Z34four_columns_cmp_with_literal_nP_SPmmPPhjmmS1_jmmS1_jmmS1_jmm+0x524>
     b6b:	c4 42 7d 17 ed       	vptest %ymm13,%ymm13
     b70:	74 62                	je     bd4 <_Z34four_columns_cmp_with_literal_nP_SPmmPPhjmmS1_jmmS1_jmmS1_jmm+0x524>
     b72:	4c 8b 4d b0          	mov    -0x50(%rbp),%r9
     b76:	49 8d 0c 12          	lea    (%r10,%rdx,1),%rcx
     b7a:	49 83 f8 03          	cmp    $0x3,%r8
     b7e:	c4 c1 7d 6f 69 40    	vmovdqa 0x40(%r9),%ymm5
     b84:	4c 8b 4b 30          	mov    0x30(%rbx),%r9
     b88:	4d 8b 49 10          	mov    0x10(%r9),%r9
     b8c:	c4 41 7e 6f 24 09    	vmovdqu (%r9,%rcx,1),%ymm12
     b92:	c5 9d 64 c5          	vpcmpgtb %ymm5,%ymm12,%ymm0
     b96:	c5 95 db d8          	vpand  %ymm0,%ymm13,%ymm3
     b9a:	c4 41 55 74 f4       	vpcmpeqb %ymm12,%ymm5,%ymm14
     b9f:	c5 dd eb e3          	vpor   %ymm3,%ymm4,%ymm4
     ba3:	c4 c1 15 db de       	vpand  %ymm14,%ymm13,%ymm3
     ba8:	76 2a                	jbe    bd4 <_Z34four_columns_cmp_with_literal_nP_SPmmPPhjmmS1_jmmS1_jmmS1_jmm+0x524>
     baa:	c4 e2 7d 17 db       	vptest %ymm3,%ymm3
     baf:	74 23                	je     bd4 <_Z34four_columns_cmp_with_literal_nP_SPmmPPhjmmS1_jmmS1_jmmS1_jmm+0x524>
     bb1:	4c 8b 4b 30          	mov    0x30(%rbx),%r9
     bb5:	49 8d 0c 12          	lea    (%r10,%rdx,1),%rcx
     bb9:	4d 8b 49 18          	mov    0x18(%r9),%r9
     bbd:	c4 c1 7e 6f 04 09    	vmovdqu (%r9,%rcx,1),%ymm0
     bc3:	48 8b 4d b0          	mov    -0x50(%rbp),%rcx
     bc7:	c5 fd 64 69 60       	vpcmpgtb 0x60(%rcx),%ymm0,%ymm5
     bcc:	c5 e5 db dd          	vpand  %ymm5,%ymm3,%ymm3
     bd0:	c5 dd eb e3          	vpor   %ymm3,%ymm4,%ymm4
     bd4:	48 83 fe 01          	cmp    $0x1,%rsi
     bd8:	0f 86 b6 00 00 00    	jbe    c94 <_Z34four_columns_cmp_with_literal_nP_SPmmPPhjmmS1_jmmS1_jmmS1_jmm+0x5e4>
     bde:	c4 e2 7d 17 c9       	vptest %ymm1,%ymm1
     be3:	0f 84 ab 00 00 00    	je     c94 <_Z34four_columns_cmp_with_literal_nP_SPmmPPhjmmS1_jmmS1_jmmS1_jmm+0x5e4>
     be9:	4c 8b 8d 70 ff ff ff 	mov    -0x90(%rbp),%r9
     bf0:	49 8d 0c 12          	lea    (%r10,%rdx,1),%rcx
     bf4:	48 83 fe 02          	cmp    $0x2,%rsi
     bf8:	c4 c1 7d 6f 69 20    	vmovdqa 0x20(%r9),%ymm5
     bfe:	4c 8b 4b 50          	mov    0x50(%rbx),%r9
     c02:	4d 8b 49 08          	mov    0x8(%r9),%r9
     c06:	c4 41 7e 6f 24 09    	vmovdqu (%r9,%rcx,1),%ymm12
     c0c:	c4 c1 55 64 c4       	vpcmpgtb %ymm12,%ymm5,%ymm0
     c11:	c5 f5 db d8          	vpand  %ymm0,%ymm1,%ymm3
     c15:	c4 41 55 74 ec       	vpcmpeqb %ymm12,%ymm5,%ymm13
     c1a:	c5 ed eb d3          	vpor   %ymm3,%ymm2,%ymm2
     c1e:	c4 41 75 db e5       	vpand  %ymm13,%ymm1,%ymm12
     c23:	76 6f                	jbe    c94 <_Z34four_columns_cmp_with_literal_nP_SPmmPPhjmmS1_jmmS1_jmmS1_jmm+0x5e4>
     c25:	c4 42 7d 17 e4       	vptest %ymm12,%ymm12
     c2a:	74 68                	je     c94 <_Z34four_columns_cmp_with_literal_nP_SPmmPPhjmmS1_jmmS1_jmmS1_jmm+0x5e4>
     c2c:	4c 8b 8d 70 ff ff ff 	mov    -0x90(%rbp),%r9
     c33:	49 8d 0c 12          	lea    (%r10,%rdx,1),%rcx
     c37:	48 83 fe 03          	cmp    $0x3,%rsi
     c3b:	c4 c1 7d 6f 59 40    	vmovdqa 0x40(%r9),%ymm3
     c41:	4c 8b 4b 50          	mov    0x50(%rbx),%r9
     c45:	4d 8b 49 10          	mov    0x10(%r9),%r9
     c49:	c4 c1 7e 6f 2c 09    	vmovdqu (%r9,%rcx,1),%ymm5
     c4f:	c5 e5 64 c5          	vpcmpgtb %ymm5,%ymm3,%ymm0
     c53:	c5 9d db c8          	vpand  %ymm0,%ymm12,%ymm1
     c57:	c5 65 74 ed          	vpcmpeqb %ymm5,%ymm3,%ymm13
     c5b:	c5 ed eb d1          	vpor   %ymm1,%ymm2,%ymm2
     c5f:	c4 c1 1d db cd       	vpand  %ymm13,%ymm12,%ymm1
     c64:	76 2e                	jbe    c94 <_Z34four_columns_cmp_with_literal_nP_SPmmPPhjmmS1_jmmS1_jmmS1_jmm+0x5e4>
     c66:	c4 e2 7d 17 c9       	vptest %ymm1,%ymm1
     c6b:	74 27                	je     c94 <_Z34four_columns_cmp_with_literal_nP_SPmmPPhjmmS1_jmmS1_jmmS1_jmm+0x5e4>
     c6d:	4c 8b 8d 70 ff ff ff 	mov    -0x90(%rbp),%r9
     c74:	49 8d 0c 12          	lea    (%r10,%rdx,1),%rcx
     c78:	c4 c1 7d 6f 41 60    	vmovdqa 0x60(%r9),%ymm0
     c7e:	4c 8b 4b 50          	mov    0x50(%rbx),%r9
     c82:	4d 8b 49 18          	mov    0x18(%r9),%r9
     c86:	c4 c1 7d 64 1c 09    	vpcmpgtb (%r9,%rcx,1),%ymm0,%ymm3
     c8c:	c5 f5 db cb          	vpand  %ymm3,%ymm1,%ymm1
     c90:	c5 ed eb d1          	vpor   %ymm1,%ymm2,%ymm2
     c94:	c5 bd db c6          	vpand  %ymm6,%ymm8,%ymm0
     c98:	89 d1                	mov    %edx,%ecx
     c9a:	c5 dd db ca          	vpand  %ymm2,%ymm4,%ymm1
     c9e:	c5 fd db d1          	vpand  %ymm1,%ymm0,%ymm2
     ca2:	48 83 c2 20          	add    $0x20,%rdx
     ca6:	c5 7d d7 ca          	vpmovmskb %ymm2,%r9d
     caa:	49 d3 e1             	shl    %cl,%r9
     cad:	49 0b c1             	or     %r9,%rax
     cb0:	48 83 fa 40          	cmp    $0x40,%rdx
     cb4:	0f 82 b0 fc ff ff    	jb     96a <_Z34four_columns_cmp_with_literal_nP_SPmmPPhjmmS1_jmmS1_jmmS1_jmm+0x2ba>
     cba:	48 8b 4d c8          	mov    -0x38(%rbp),%rcx
     cbe:	49 83 c2 40          	add    $0x40,%r10
     cc2:	48 8b 7d c0          	mov    -0x40(%rbp),%rdi
     cc6:	49 83 c5 40          	add    $0x40,%r13
     cca:	4c 8b 4d b8          	mov    -0x48(%rbp),%r9
     cce:	49 83 c6 40          	add    $0x40,%r14
     cd2:	48 0f c3 04 cf       	movnti %rax,(%rdi,%rcx,8)
     cd7:	49 83 c7 40          	add    $0x40,%r15
     cdb:	49 83 c3 40          	add    $0x40,%r11
     cdf:	48 ff c1             	inc    %rcx
     ce2:	4d 3b d1             	cmp    %r9,%r10
     ce5:	0f 82 6b fc ff ff    	jb     956 <_Z34four_columns_cmp_with_literal_nP_SPmmPPhjmmS1_jmmS1_jmmS1_jmm+0x2a6>
     ceb:	48 8b 85 70 ff ff ff 	mov    -0x90(%rbp),%rax
     cf2:	48 89 c2             	mov    %rax,%rdx
     cf5:	48 8b 45 90          	mov    -0x70(%rbp),%rax
     cf9:	48 83 c0 1f          	add    $0x1f,%rax
     cfd:	48 83 e0 e0          	and    $0xffffffffffffffe0,%rax
     d01:	48 03 e0             	add    %rax,%rsp
     d04:	48 8b 55 b0          	mov    -0x50(%rbp),%rdx
     d08:	48 8b 45 88          	mov    -0x78(%rbp),%rax
     d0c:	48 83 c0 1f          	add    $0x1f,%rax
     d10:	48 83 e0 e0          	and    $0xffffffffffffffe0,%rax
     d14:	48 03 e0             	add    %rax,%rsp
     d17:	48 8b 55 a0          	mov    -0x60(%rbp),%rdx
     d1b:	48 8b 45 80          	mov    -0x80(%rbp),%rax
     d1f:	48 83 c0 1f          	add    $0x1f,%rax
     d23:	48 83 e0 e0          	and    $0xffffffffffffffe0,%rax
     d27:	48 03 e0             	add    %rax,%rsp
     d2a:	48 8b 55 a8          	mov    -0x58(%rbp),%rdx
     d2e:	48 8b 85 78 ff ff ff 	mov    -0x88(%rbp),%rax
     d35:	48 83 c0 1f          	add    $0x1f,%rax
     d39:	48 83 e0 e0          	and    $0xffffffffffffffe0,%rax
     d3d:	48 03 e0             	add    %rax,%rsp
     d40:	48 8d 65 e0          	lea    -0x20(%rbp),%rsp
     d44:	41 5f                	pop    %r15
     d46:	41 5e                	pop    %r14
     d48:	41 5d                	pop    %r13
     d4a:	41 5c                	pop    %r12
     d4c:	5d                   	pop    %rbp
     d4d:	48 89 dc             	mov    %rbx,%rsp
     d50:	5b                   	pop    %rbx
     d51:	c3                   	retq   
     d52:	0f 1f 80 00 00 00 00 	nopl   0x0(%rax)
     d59:	0f 1f 80 00 00 00 00 	nopl   0x0(%rax)

0000000000000d60 <_Z34four_columns_cmp_with_literal_P_nSPmmPPhjmmS1_jmmS1_jmmS1_jmm>:
     d60:	53                   	push   %rbx
     d61:	48 89 e3             	mov    %rsp,%rbx
     d64:	48 83 e4 e0          	and    $0xffffffffffffffe0,%rsp
     d68:	55                   	push   %rbp
     d69:	55                   	push   %rbp
     d6a:	48 8b 6b 08          	mov    0x8(%rbx),%rbp
     d6e:	48 89 6c 24 08       	mov    %rbp,0x8(%rsp)
     d73:	48 89 e5             	mov    %rsp,%rbp
     d76:	41 54                	push   %r12
     d78:	41 55                	push   %r13
     d7a:	41 56                	push   %r14
     d7c:	41 57                	push   %r15
     d7e:	48 81 ec 90 00 00 00 	sub    $0x90,%rsp
     d85:	4d 89 c4             	mov    %r8,%r12
     d88:	4c 89 e0             	mov    %r12,%rax
     d8b:	48 c1 e0 05          	shl    $0x5,%rax
     d8f:	48 89 55 88          	mov    %rdx,-0x78(%rbp)
     d93:	48 89 75 a8          	mov    %rsi,-0x58(%rbp)
     d97:	48 89 85 68 ff ff ff 	mov    %rax,-0x98(%rbp)
     d9e:	48 83 c0 1f          	add    $0x1f,%rax
     da2:	48 83 e0 e0          	and    $0xffffffffffffffe0,%rax
     da6:	48 2b e0             	sub    %rax,%rsp
     da9:	48 89 e0             	mov    %rsp,%rax
     dac:	48 89 c6             	mov    %rax,%rsi
     daf:	41 89 cf             	mov    %ecx,%r15d
     db2:	44 89 c9             	mov    %r9d,%ecx
     db5:	48 8b 43 20          	mov    0x20(%rbx),%rax
     db9:	49 d3 e7             	shl    %cl,%r15
     dbc:	48 c1 e0 05          	shl    $0x5,%rax
     dc0:	48 89 85 70 ff ff ff 	mov    %rax,-0x90(%rbp)
     dc7:	48 83 c0 1f          	add    $0x1f,%rax
     dcb:	48 83 e0 e0          	and    $0xffffffffffffffe0,%rax
     dcf:	48 2b e0             	sub    %rax,%rsp
     dd2:	48 89 e0             	mov    %rsp,%rax
     dd5:	49 89 c0             	mov    %rax,%r8
     dd8:	8b 4b 28             	mov    0x28(%rbx),%ecx
     ddb:	44 8b 73 18          	mov    0x18(%rbx),%r14d
     ddf:	48 8b 43 40          	mov    0x40(%rbx),%rax
     de3:	49 d3 e6             	shl    %cl,%r14
     de6:	48 c1 e0 05          	shl    $0x5,%rax
     dea:	48 89 85 78 ff ff ff 	mov    %rax,-0x88(%rbp)
     df1:	48 83 c0 1f          	add    $0x1f,%rax
     df5:	48 83 e0 e0          	and    $0xffffffffffffffe0,%rax
     df9:	48 2b e0             	sub    %rax,%rsp
     dfc:	48 89 e0             	mov    %rsp,%rax
     dff:	49 89 c1             	mov    %rax,%r9
     e02:	8b 4b 48             	mov    0x48(%rbx),%ecx
     e05:	44 8b 6b 38          	mov    0x38(%rbx),%r13d
     e09:	48 8b 43 60          	mov    0x60(%rbx),%rax
     e0d:	49 d3 e5             	shl    %cl,%r13
     e10:	48 c1 e0 05          	shl    $0x5,%rax
     e14:	48 89 45 80          	mov    %rax,-0x80(%rbp)
     e18:	48 83 c0 1f          	add    $0x1f,%rax
     e1c:	48 83 e0 e0          	and    $0xffffffffffffffe0,%rax
     e20:	48 2b e0             	sub    %rax,%rsp
     e23:	48 89 e0             	mov    %rsp,%rax
     e26:	8b 4b 68             	mov    0x68(%rbx),%ecx
     e29:	44 8b 53 58          	mov    0x58(%rbx),%r10d
     e2d:	49 d3 e2             	shl    %cl,%r10
     e30:	33 c9                	xor    %ecx,%ecx
     e32:	33 d2                	xor    %edx,%edx
     e34:	4d 85 e4             	test   %r12,%r12
     e37:	76 5f                	jbe    e98 <_Z34four_columns_cmp_with_literal_P_nSPmmPPhjmmS1_jmmS1_jmmS1_jmm+0x138>
     e39:	4c 89 85 50 ff ff ff 	mov    %r8,-0xb0(%rbp)
     e40:	4e 8d 1c e5 f8 ff ff 	lea    -0x8(,%r12,8),%r11
     e47:	ff 
     e48:	48 89 7d 98          	mov    %rdi,-0x68(%rbp)
     e4c:	48 89 cf             	mov    %rcx,%rdi
     e4f:	44 89 d9             	mov    %r11d,%ecx
     e52:	45 89 f8             	mov    %r15d,%r8d
     e55:	41 d3 e8             	shr    %cl,%r8d
     e58:	48 ff c7             	inc    %rdi
     e5b:	41 83 f0 80          	xor    $0xffffff80,%r8d
     e5f:	49 83 c3 f8          	add    $0xfffffffffffffff8,%r11
     e63:	45 0f b6 c0          	movzbl %r8b,%r8d
     e67:	c4 c1 79 6e c0       	vmovd  %r8d,%xmm0
     e6c:	c5 f9 60 c8          	vpunpcklbw %xmm0,%xmm0,%xmm1
     e70:	c5 f1 60 d1          	vpunpcklbw %xmm1,%xmm1,%xmm2
     e74:	c5 f9 70 da 00       	vpshufd $0x0,%xmm2,%xmm3
     e79:	c4 e3 65 18 e3 01    	vinsertf128 $0x1,%xmm3,%ymm3,%ymm4
     e7f:	c5 fc 29 24 32       	vmovaps %ymm4,(%rdx,%rsi,1)
     e84:	48 83 c2 20          	add    $0x20,%rdx
     e88:	49 3b fc             	cmp    %r12,%rdi
     e8b:	72 c2                	jb     e4f <_Z34four_columns_cmp_with_literal_P_nSPmmPPhjmmS1_jmmS1_jmmS1_jmm+0xef>
     e8d:	4c 8b 85 50 ff ff ff 	mov    -0xb0(%rbp),%r8
     e94:	48 8b 7d 98          	mov    -0x68(%rbp),%rdi
     e98:	33 d2                	xor    %edx,%edx
     e9a:	45 33 ff             	xor    %r15d,%r15d
     e9d:	48 83 7b 20 00       	cmpq   $0x0,0x20(%rbx)
     ea2:	76 5e                	jbe    f02 <_Z34four_columns_cmp_with_literal_P_nSPmmPPhjmmS1_jmmS1_jmmS1_jmm+0x1a2>
     ea4:	48 8b 4b 20          	mov    0x20(%rbx),%rcx
     ea8:	48 89 7d 98          	mov    %rdi,-0x68(%rbp)
     eac:	48 89 cf             	mov    %rcx,%rdi
     eaf:	4c 89 65 a0          	mov    %r12,-0x60(%rbp)
     eb3:	4c 8d 1c cd f8 ff ff 	lea    -0x8(,%rcx,8),%r11
     eba:	ff 
     ebb:	44 89 d9             	mov    %r11d,%ecx
     ebe:	45 89 f4             	mov    %r14d,%r12d
     ec1:	41 d3 ec             	shr    %cl,%r12d
     ec4:	48 ff c2             	inc    %rdx
     ec7:	41 83 f4 80          	xor    $0xffffff80,%r12d
     ecb:	49 83 c3 f8          	add    $0xfffffffffffffff8,%r11
     ecf:	45 0f b6 e4          	movzbl %r12b,%r12d
     ed3:	c4 c1 79 6e c4       	vmovd  %r12d,%xmm0
     ed8:	c5 f9 60 c8          	vpunpcklbw %xmm0,%xmm0,%xmm1
     edc:	c5 f1 60 d1          	vpunpcklbw %xmm1,%xmm1,%xmm2
     ee0:	c5 f9 70 da 00       	vpshufd $0x0,%xmm2,%xmm3
     ee5:	c4 e3 65 18 e3 01    	vinsertf128 $0x1,%xmm3,%ymm3,%ymm4
     eeb:	c4 81 7c 29 24 07    	vmovaps %ymm4,(%r15,%r8,1)
     ef1:	49 83 c7 20          	add    $0x20,%r15
     ef5:	48 3b d7             	cmp    %rdi,%rdx
     ef8:	72 c1                	jb     ebb <_Z34four_columns_cmp_with_literal_P_nSPmmPPhjmmS1_jmmS1_jmmS1_jmm+0x15b>
     efa:	48 8b 7d 98          	mov    -0x68(%rbp),%rdi
     efe:	4c 8b 65 a0          	mov    -0x60(%rbp),%r12
     f02:	33 d2                	xor    %edx,%edx
     f04:	45 33 ff             	xor    %r15d,%r15d
     f07:	48 83 7b 40 00       	cmpq   $0x0,0x40(%rbx)
     f0c:	76 56                	jbe    f64 <_Z34four_columns_cmp_with_literal_P_nSPmmPPhjmmS1_jmmS1_jmmS1_jmm+0x204>
     f0e:	48 8b 4b 40          	mov    0x40(%rbx),%rcx
     f12:	49 89 cb             	mov    %rcx,%r11
     f15:	4c 89 65 a0          	mov    %r12,-0x60(%rbp)
     f19:	4c 8d 34 cd f8 ff ff 	lea    -0x8(,%rcx,8),%r14
     f20:	ff 
     f21:	44 89 f1             	mov    %r14d,%ecx
     f24:	45 89 ec             	mov    %r13d,%r12d
     f27:	41 d3 ec             	shr    %cl,%r12d
     f2a:	48 ff c2             	inc    %rdx
     f2d:	41 83 f4 80          	xor    $0xffffff80,%r12d
     f31:	49 83 c6 f8          	add    $0xfffffffffffffff8,%r14
     f35:	45 0f b6 e4          	movzbl %r12b,%r12d
     f39:	c4 c1 79 6e c4       	vmovd  %r12d,%xmm0
     f3e:	c5 f9 60 c8          	vpunpcklbw %xmm0,%xmm0,%xmm1
     f42:	c5 f1 60 d1          	vpunpcklbw %xmm1,%xmm1,%xmm2
     f46:	c5 f9 70 da 00       	vpshufd $0x0,%xmm2,%xmm3
     f4b:	c4 e3 65 18 e3 01    	vinsertf128 $0x1,%xmm3,%ymm3,%ymm4
     f51:	c4 81 7c 29 24 0f    	vmovaps %ymm4,(%r15,%r9,1)
     f57:	49 83 c7 20          	add    $0x20,%r15
     f5b:	49 3b d3             	cmp    %r11,%rdx
     f5e:	72 c1                	jb     f21 <_Z34four_columns_cmp_with_literal_P_nSPmmPPhjmmS1_jmmS1_jmmS1_jmm+0x1c1>
     f60:	4c 8b 65 a0          	mov    -0x60(%rbp),%r12
     f64:	45 33 f6             	xor    %r14d,%r14d
     f67:	45 33 ff             	xor    %r15d,%r15d
     f6a:	48 83 7b 60 00       	cmpq   $0x0,0x60(%rbx)
     f6f:	76 4a                	jbe    fbb <_Z34four_columns_cmp_with_literal_P_nSPmmPPhjmmS1_jmmS1_jmmS1_jmm+0x25b>
     f71:	48 8b 4b 60          	mov    0x60(%rbx),%rcx
     f75:	49 89 cd             	mov    %rcx,%r13
     f78:	4c 8d 1c cd f8 ff ff 	lea    -0x8(,%rcx,8),%r11
     f7f:	ff 
     f80:	44 89 d9             	mov    %r11d,%ecx
     f83:	44 89 d2             	mov    %r10d,%edx
     f86:	d3 ea                	shr    %cl,%edx
     f88:	49 ff c6             	inc    %r14
     f8b:	83 f2 80             	xor    $0xffffff80,%edx
     f8e:	49 83 c3 f8          	add    $0xfffffffffffffff8,%r11
     f92:	0f b6 d2             	movzbl %dl,%edx
     f95:	c5 f9 6e c2          	vmovd  %edx,%xmm0
     f99:	c5 f9 60 c8          	vpunpcklbw %xmm0,%xmm0,%xmm1
     f9d:	c5 f1 60 d1          	vpunpcklbw %xmm1,%xmm1,%xmm2
     fa1:	c5 f9 70 da 00       	vpshufd $0x0,%xmm2,%xmm3
     fa6:	c4 e3 65 18 e3 01    	vinsertf128 $0x1,%xmm3,%ymm3,%ymm4
     fac:	c4 c1 7c 29 24 07    	vmovaps %ymm4,(%r15,%rax,1)
     fb2:	49 83 c7 20          	add    $0x20,%r15
     fb6:	4d 3b f5             	cmp    %r13,%r14
     fb9:	72 c5                	jb     f80 <_Z34four_columns_cmp_with_literal_P_nSPmmPPhjmmS1_jmmS1_jmmS1_jmm+0x220>
     fbb:	45 33 f6             	xor    %r14d,%r14d
     fbe:	33 d2                	xor    %edx,%edx
     fc0:	48 83 7d a8 00       	cmpq   $0x0,-0x58(%rbp)
     fc5:	0f 86 68 04 00 00    	jbe    1433 <_Z34four_columns_cmp_with_literal_P_nSPmmPPhjmmS1_jmmS1_jmmS1_jmm+0x6d3>
     fcb:	4c 8b 7b 10          	mov    0x10(%rbx),%r15
     fcf:	4c 8b 6b 30          	mov    0x30(%rbx),%r13
     fd3:	48 8b 4b 50          	mov    0x50(%rbx),%rcx
     fd7:	4c 8b 55 88          	mov    -0x78(%rbp),%r10
     fdb:	c5 7d 6f 16          	vmovdqa (%rsi),%ymm10
     fdf:	c4 41 7d 6f 08       	vmovdqa (%r8),%ymm9
     fe4:	c4 41 7d 6f 19       	vmovdqa (%r9),%ymm11
     fe9:	c5 fd 6f 38          	vmovdqa (%rax),%ymm7
     fed:	4d 8b 12             	mov    (%r10),%r10
     ff0:	4d 8b 1f             	mov    (%r15),%r11
     ff3:	49 89 d7             	mov    %rdx,%r15
     ff6:	4d 8b 6d 00          	mov    0x0(%r13),%r13
     ffa:	48 8b 09             	mov    (%rcx),%rcx
     ffd:	48 89 45 90          	mov    %rax,-0x70(%rbp)
    1001:	4c 89 8d 58 ff ff ff 	mov    %r9,-0xa8(%rbp)
    1008:	4c 89 85 50 ff ff ff 	mov    %r8,-0xb0(%rbp)
    100f:	48 89 b5 60 ff ff ff 	mov    %rsi,-0xa0(%rbp)
    1016:	4c 89 65 a0          	mov    %r12,-0x60(%rbp)
    101a:	45 33 e4             	xor    %r12d,%r12d
    101d:	4c 89 d2             	mov    %r10,%rdx
    1020:	4c 89 6d c8          	mov    %r13,-0x38(%rbp)
    1024:	33 c0                	xor    %eax,%eax
    1026:	4c 89 5d c0          	mov    %r11,-0x40(%rbp)
    102a:	4c 89 de             	mov    %r11,%rsi
    102d:	4c 89 55 b8          	mov    %r10,-0x48(%rbp)
    1031:	4d 89 e8             	mov    %r13,%r8
    1034:	48 89 7d 98          	mov    %rdi,-0x68(%rbp)
    1038:	49 89 c9             	mov    %rcx,%r9
    103b:	48 89 4d d0          	mov    %rcx,-0x30(%rbp)
    103f:	4c 89 7d b0          	mov    %r15,-0x50(%rbp)
    1043:	48 8b 7b 60          	mov    0x60(%rbx),%rdi
    1047:	4c 8b 53 40          	mov    0x40(%rbx),%r10
    104b:	4c 8b 5b 20          	mov    0x20(%rbx),%r11
    104f:	4c 8b 6d a0          	mov    -0x60(%rbp),%r13
    1053:	0f 18 82 00 04 00 00 	prefetchnta 0x400(%rdx)
    105a:	49 83 fd 01          	cmp    $0x1,%r13
    105e:	0f 18 86 00 04 00 00 	prefetchnta 0x400(%rsi)
    1065:	41 0f 18 80 00 04 00 	prefetchnta 0x400(%r8)
    106c:	00 
    106d:	41 0f 18 81 00 04 00 	prefetchnta 0x400(%r9)
    1074:	00 
    1075:	c5 fe 6f 02          	vmovdqu (%rdx),%ymm0
    1079:	c5 fe 6f 26          	vmovdqu (%rsi),%ymm4
    107d:	c4 c1 7e 6f 10       	vmovdqu (%r8),%ymm2
    1082:	c4 c1 7e 6f 09       	vmovdqu (%r9),%ymm1
    1087:	c4 41 7d 64 c2       	vpcmpgtb %ymm10,%ymm0,%ymm8
    108c:	c5 ad 74 c0          	vpcmpeqb %ymm0,%ymm10,%ymm0
    1090:	c5 b5 64 f4          	vpcmpgtb %ymm4,%ymm9,%ymm6
    1094:	c5 b5 74 ec          	vpcmpeqb %ymm4,%ymm9,%ymm5
    1098:	c4 c1 6d 64 e3       	vpcmpgtb %ymm11,%ymm2,%ymm4
    109d:	c5 a5 74 da          	vpcmpeqb %ymm2,%ymm11,%ymm3
    10a1:	c5 c5 64 d1          	vpcmpgtb %ymm1,%ymm7,%ymm2
    10a5:	c5 c5 74 c9          	vpcmpeqb %ymm1,%ymm7,%ymm1
    10a9:	0f 86 bd 00 00 00    	jbe    116c <_Z34four_columns_cmp_with_literal_P_nSPmmPPhjmmS1_jmmS1_jmmS1_jmm+0x40c>
    10af:	c4 e2 7d 17 c0       	vptest %ymm0,%ymm0
    10b4:	0f 84 b2 00 00 00    	je     116c <_Z34four_columns_cmp_with_literal_P_nSPmmPPhjmmS1_jmmS1_jmmS1_jmm+0x40c>
    10ba:	4c 8b bd 60 ff ff ff 	mov    -0xa0(%rbp),%r15
    10c1:	49 8d 0c 06          	lea    (%r14,%rax,1),%rcx
    10c5:	49 83 fd 02          	cmp    $0x2,%r13
    10c9:	c4 41 7d 6f 77 20    	vmovdqa 0x20(%r15),%ymm14
    10cf:	4c 8b 7d 88          	mov    -0x78(%rbp),%r15
    10d3:	4d 8b 7f 08          	mov    0x8(%r15),%r15
    10d7:	c4 41 7e 6f 3c 0f    	vmovdqu (%r15,%rcx,1),%ymm15
    10dd:	c4 41 05 64 e6       	vpcmpgtb %ymm14,%ymm15,%ymm12
    10e2:	c4 41 7d db ec       	vpand  %ymm12,%ymm0,%ymm13
    10e7:	c4 41 0d 74 e7       	vpcmpeqb %ymm15,%ymm14,%ymm12
    10ec:	c4 41 3d eb c5       	vpor   %ymm13,%ymm8,%ymm8
    10f1:	c4 c1 7d db c4       	vpand  %ymm12,%ymm0,%ymm0
    10f6:	76 74                	jbe    116c <_Z34four_columns_cmp_with_literal_P_nSPmmPPhjmmS1_jmmS1_jmmS1_jmm+0x40c>
    10f8:	c4 e2 7d 17 c0       	vptest %ymm0,%ymm0
    10fd:	74 6d                	je     116c <_Z34four_columns_cmp_with_literal_P_nSPmmPPhjmmS1_jmmS1_jmmS1_jmm+0x40c>
    10ff:	4c 8b bd 60 ff ff ff 	mov    -0xa0(%rbp),%r15
    1106:	49 8d 0c 06          	lea    (%r14,%rax,1),%rcx
    110a:	49 83 fd 03          	cmp    $0x3,%r13
    110e:	c4 41 7d 6f 77 40    	vmovdqa 0x40(%r15),%ymm14
    1114:	4c 8b 7d 88          	mov    -0x78(%rbp),%r15
    1118:	4d 8b 7f 10          	mov    0x10(%r15),%r15
    111c:	c4 41 7e 6f 3c 0f    	vmovdqu (%r15,%rcx,1),%ymm15
    1122:	c4 41 05 64 e6       	vpcmpgtb %ymm14,%ymm15,%ymm12
    1127:	c4 41 7d db ec       	vpand  %ymm12,%ymm0,%ymm13
    112c:	c4 41 0d 74 e7       	vpcmpeqb %ymm15,%ymm14,%ymm12
    1131:	c4 41 3d eb c5       	vpor   %ymm13,%ymm8,%ymm8
    1136:	c4 41 7d db e4       	vpand  %ymm12,%ymm0,%ymm12
    113b:	76 2f                	jbe    116c <_Z34four_columns_cmp_with_literal_P_nSPmmPPhjmmS1_jmmS1_jmmS1_jmm+0x40c>
    113d:	c4 42 7d 17 e4       	vptest %ymm12,%ymm12
    1142:	74 28                	je     116c <_Z34four_columns_cmp_with_literal_P_nSPmmPPhjmmS1_jmmS1_jmmS1_jmm+0x40c>
    1144:	4c 8b 7d 88          	mov    -0x78(%rbp),%r15
    1148:	49 8d 0c 06          	lea    (%r14,%rax,1),%rcx
    114c:	4d 8b 7f 18          	mov    0x18(%r15),%r15
    1150:	c4 c1 7e 6f 04 0f    	vmovdqu (%r15,%rcx,1),%ymm0
    1156:	48 8b 8d 60 ff ff ff 	mov    -0xa0(%rbp),%rcx
    115d:	c5 7d 64 69 60       	vpcmpgtb 0x60(%rcx),%ymm0,%ymm13
    1162:	c4 41 1d db e5       	vpand  %ymm13,%ymm12,%ymm12
    1167:	c4 41 3d eb c4       	vpor   %ymm12,%ymm8,%ymm8
    116c:	49 83 fb 01          	cmp    $0x1,%r11
    1170:	0f 86 ba 00 00 00    	jbe    1230 <_Z34four_columns_cmp_with_literal_P_nSPmmPPhjmmS1_jmmS1_jmmS1_jmm+0x4d0>
    1176:	c4 e2 7d 17 ed       	vptest %ymm5,%ymm5
    117b:	0f 84 af 00 00 00    	je     1230 <_Z34four_columns_cmp_with_literal_P_nSPmmPPhjmmS1_jmmS1_jmmS1_jmm+0x4d0>
    1181:	4c 8b bd 50 ff ff ff 	mov    -0xb0(%rbp),%r15
    1188:	49 8d 0c 06          	lea    (%r14,%rax,1),%rcx
    118c:	49 83 fb 02          	cmp    $0x2,%r11
    1190:	c4 41 7d 6f 6f 20    	vmovdqa 0x20(%r15),%ymm13
    1196:	4c 8b 7b 10          	mov    0x10(%rbx),%r15
    119a:	4d 8b 7f 08          	mov    0x8(%r15),%r15
    119e:	c4 41 7e 6f 34 0f    	vmovdqu (%r15,%rcx,1),%ymm14
    11a4:	c4 c1 15 64 c6       	vpcmpgtb %ymm14,%ymm13,%ymm0
    11a9:	c5 55 db e0          	vpand  %ymm0,%ymm5,%ymm12
    11ad:	c4 41 15 74 fe       	vpcmpeqb %ymm14,%ymm13,%ymm15
    11b2:	c4 c1 4d eb f4       	vpor   %ymm12,%ymm6,%ymm6
    11b7:	c4 41 55 db f7       	vpand  %ymm15,%ymm5,%ymm14
    11bc:	76 72                	jbe    1230 <_Z34four_columns_cmp_with_literal_P_nSPmmPPhjmmS1_jmmS1_jmmS1_jmm+0x4d0>
    11be:	c4 42 7d 17 f6       	vptest %ymm14,%ymm14
    11c3:	74 6b                	je     1230 <_Z34four_columns_cmp_with_literal_P_nSPmmPPhjmmS1_jmmS1_jmmS1_jmm+0x4d0>
    11c5:	4c 8b bd 50 ff ff ff 	mov    -0xb0(%rbp),%r15
    11cc:	49 8d 0c 06          	lea    (%r14,%rax,1),%rcx
    11d0:	49 83 fb 03          	cmp    $0x3,%r11
    11d4:	c4 41 7d 6f 67 40    	vmovdqa 0x40(%r15),%ymm12
    11da:	4c 8b 7b 10          	mov    0x10(%rbx),%r15
    11de:	4d 8b 7f 10          	mov    0x10(%r15),%r15
    11e2:	c4 41 7e 6f 2c 0f    	vmovdqu (%r15,%rcx,1),%ymm13
    11e8:	c4 c1 1d 64 c5       	vpcmpgtb %ymm13,%ymm12,%ymm0
    11ed:	c5 8d db e8          	vpand  %ymm0,%ymm14,%ymm5
    11f1:	c4 41 1d 74 fd       	vpcmpeqb %ymm13,%ymm12,%ymm15
    11f6:	c5 cd eb f5          	vpor   %ymm5,%ymm6,%ymm6
    11fa:	c4 c1 0d db ef       	vpand  %ymm15,%ymm14,%ymm5
    11ff:	76 2f                	jbe    1230 <_Z34four_columns_cmp_with_literal_P_nSPmmPPhjmmS1_jmmS1_jmmS1_jmm+0x4d0>
    1201:	c4 e2 7d 17 ed       	vptest %ymm5,%ymm5
    1206:	74 28                	je     1230 <_Z34four_columns_cmp_with_literal_P_nSPmmPPhjmmS1_jmmS1_jmmS1_jmm+0x4d0>
    1208:	4c 8b bd 50 ff ff ff 	mov    -0xb0(%rbp),%r15
    120f:	49 8d 0c 06          	lea    (%r14,%rax,1),%rcx
    1213:	c4 c1 7d 6f 47 60    	vmovdqa 0x60(%r15),%ymm0
    1219:	4c 8b 7b 10          	mov    0x10(%rbx),%r15
    121d:	4d 8b 7f 18          	mov    0x18(%r15),%r15
    1221:	c4 41 7d 64 24 0f    	vpcmpgtb (%r15,%rcx,1),%ymm0,%ymm12
    1227:	c4 c1 55 db ec       	vpand  %ymm12,%ymm5,%ymm5
    122c:	c5 cd eb f5          	vpor   %ymm5,%ymm6,%ymm6
    1230:	49 83 fa 01          	cmp    $0x1,%r10
    1234:	0f 86 b6 00 00 00    	jbe    12f0 <_Z34four_columns_cmp_with_literal_P_nSPmmPPhjmmS1_jmmS1_jmmS1_jmm+0x590>
    123a:	c4 e2 7d 17 db       	vptest %ymm3,%ymm3
    123f:	0f 84 ab 00 00 00    	je     12f0 <_Z34four_columns_cmp_with_literal_P_nSPmmPPhjmmS1_jmmS1_jmmS1_jmm+0x590>
    1245:	4c 8b bd 58 ff ff ff 	mov    -0xa8(%rbp),%r15
    124c:	49 8d 0c 06          	lea    (%r14,%rax,1),%rcx
    1250:	49 83 fa 02          	cmp    $0x2,%r10
    1254:	c4 41 7d 6f 67 20    	vmovdqa 0x20(%r15),%ymm12
    125a:	4c 8b 7b 30          	mov    0x30(%rbx),%r15
    125e:	4d 8b 7f 08          	mov    0x8(%r15),%r15
    1262:	c4 41 7e 6f 2c 0f    	vmovdqu (%r15,%rcx,1),%ymm13
    1268:	c4 c1 15 64 c4       	vpcmpgtb %ymm12,%ymm13,%ymm0
    126d:	c5 e5 db e8          	vpand  %ymm0,%ymm3,%ymm5
    1271:	c4 41 1d 74 f5       	vpcmpeqb %ymm13,%ymm12,%ymm14
    1276:	c5 dd eb e5          	vpor   %ymm5,%ymm4,%ymm4
    127a:	c4 41 65 db ee       	vpand  %ymm14,%ymm3,%ymm13
    127f:	76 6f                	jbe    12f0 <_Z34four_columns_cmp_with_literal_P_nSPmmPPhjmmS1_jmmS1_jmmS1_jmm+0x590>
    1281:	c4 42 7d 17 ed       	vptest %ymm13,%ymm13
    1286:	74 68                	je     12f0 <_Z34four_columns_cmp_with_literal_P_nSPmmPPhjmmS1_jmmS1_jmmS1_jmm+0x590>
    1288:	4c 8b bd 58 ff ff ff 	mov    -0xa8(%rbp),%r15
    128f:	49 8d 0c 06          	lea    (%r14,%rax,1),%rcx
    1293:	49 83 fa 03          	cmp    $0x3,%r10
    1297:	c4 c1 7d 6f 6f 40    	vmovdqa 0x40(%r15),%ymm5
    129d:	4c 8b 7b 30          	mov    0x30(%rbx),%r15
    12a1:	4d 8b 7f 10          	mov    0x10(%r15),%r15
    12a5:	c4 41 7e 6f 24 0f    	vmovdqu (%r15,%rcx,1),%ymm12
    12ab:	c5 9d 64 c5          	vpcmpgtb %ymm5,%ymm12,%ymm0
    12af:	c5 95 db d8          	vpand  %ymm0,%ymm13,%ymm3
    12b3:	c4 41 55 74 f4       	vpcmpeqb %ymm12,%ymm5,%ymm14
    12b8:	c5 dd eb e3          	vpor   %ymm3,%ymm4,%ymm4
    12bc:	c4 c1 15 db de       	vpand  %ymm14,%ymm13,%ymm3
    12c1:	76 2d                	jbe    12f0 <_Z34four_columns_cmp_with_literal_P_nSPmmPPhjmmS1_jmmS1_jmmS1_jmm+0x590>
    12c3:	c4 e2 7d 17 db       	vptest %ymm3,%ymm3
    12c8:	74 26                	je     12f0 <_Z34four_columns_cmp_with_literal_P_nSPmmPPhjmmS1_jmmS1_jmmS1_jmm+0x590>
    12ca:	4c 8b 7b 30          	mov    0x30(%rbx),%r15
    12ce:	49 8d 0c 06          	lea    (%r14,%rax,1),%rcx
    12d2:	4d 8b 7f 18          	mov    0x18(%r15),%r15
    12d6:	c4 c1 7e 6f 04 0f    	vmovdqu (%r15,%rcx,1),%ymm0
    12dc:	48 8b 8d 58 ff ff ff 	mov    -0xa8(%rbp),%rcx
    12e3:	c5 fd 64 69 60       	vpcmpgtb 0x60(%rcx),%ymm0,%ymm5
    12e8:	c5 e5 db dd          	vpand  %ymm5,%ymm3,%ymm3
    12ec:	c5 dd eb e3          	vpor   %ymm3,%ymm4,%ymm4
    12f0:	48 83 ff 01          	cmp    $0x1,%rdi
    12f4:	0f 86 ad 00 00 00    	jbe    13a7 <_Z34four_columns_cmp_with_literal_P_nSPmmPPhjmmS1_jmmS1_jmmS1_jmm+0x647>
    12fa:	c4 e2 7d 17 c9       	vptest %ymm1,%ymm1
    12ff:	0f 84 a2 00 00 00    	je     13a7 <_Z34four_columns_cmp_with_literal_P_nSPmmPPhjmmS1_jmmS1_jmmS1_jmm+0x647>
    1305:	4c 8b 7d 90          	mov    -0x70(%rbp),%r15
    1309:	49 8d 0c 06          	lea    (%r14,%rax,1),%rcx
    130d:	48 83 ff 02          	cmp    $0x2,%rdi
    1311:	c4 c1 7d 6f 6f 20    	vmovdqa 0x20(%r15),%ymm5
    1317:	4c 8b 7b 50          	mov    0x50(%rbx),%r15
    131b:	4d 8b 7f 08          	mov    0x8(%r15),%r15
    131f:	c4 41 7e 6f 24 0f    	vmovdqu (%r15,%rcx,1),%ymm12
    1325:	c4 c1 55 64 c4       	vpcmpgtb %ymm12,%ymm5,%ymm0
    132a:	c5 f5 db d8          	vpand  %ymm0,%ymm1,%ymm3
    132e:	c4 41 55 74 ec       	vpcmpeqb %ymm12,%ymm5,%ymm13
    1333:	c5 ed eb d3          	vpor   %ymm3,%ymm2,%ymm2
    1337:	c4 41 75 db e5       	vpand  %ymm13,%ymm1,%ymm12
    133c:	76 69                	jbe    13a7 <_Z34four_columns_cmp_with_literal_P_nSPmmPPhjmmS1_jmmS1_jmmS1_jmm+0x647>
    133e:	c4 42 7d 17 e4       	vptest %ymm12,%ymm12
    1343:	74 62                	je     13a7 <_Z34four_columns_cmp_with_literal_P_nSPmmPPhjmmS1_jmmS1_jmmS1_jmm+0x647>
    1345:	4c 8b 7d 90          	mov    -0x70(%rbp),%r15
    1349:	49 8d 0c 06          	lea    (%r14,%rax,1),%rcx
    134d:	48 83 ff 03          	cmp    $0x3,%rdi
    1351:	c4 c1 7d 6f 5f 40    	vmovdqa 0x40(%r15),%ymm3
    1357:	4c 8b 7b 50          	mov    0x50(%rbx),%r15
    135b:	4d 8b 7f 10          	mov    0x10(%r15),%r15
    135f:	c4 c1 7e 6f 2c 0f    	vmovdqu (%r15,%rcx,1),%ymm5
    1365:	c5 e5 64 c5          	vpcmpgtb %ymm5,%ymm3,%ymm0
    1369:	c5 9d db c8          	vpand  %ymm0,%ymm12,%ymm1
    136d:	c5 65 74 ed          	vpcmpeqb %ymm5,%ymm3,%ymm13
    1371:	c5 ed eb d1          	vpor   %ymm1,%ymm2,%ymm2
    1375:	c4 c1 1d db cd       	vpand  %ymm13,%ymm12,%ymm1
    137a:	76 2b                	jbe    13a7 <_Z34four_columns_cmp_with_literal_P_nSPmmPPhjmmS1_jmmS1_jmmS1_jmm+0x647>
    137c:	c4 e2 7d 17 c9       	vptest %ymm1,%ymm1
    1381:	74 24                	je     13a7 <_Z34four_columns_cmp_with_literal_P_nSPmmPPhjmmS1_jmmS1_jmmS1_jmm+0x647>
    1383:	4c 8b 7d 90          	mov    -0x70(%rbp),%r15
    1387:	49 8d 0c 06          	lea    (%r14,%rax,1),%rcx
    138b:	c4 c1 7d 6f 47 60    	vmovdqa 0x60(%r15),%ymm0
    1391:	4c 8b 7b 50          	mov    0x50(%rbx),%r15
    1395:	4d 8b 7f 18          	mov    0x18(%r15),%r15
    1399:	c4 c1 7d 64 1c 0f    	vpcmpgtb (%r15,%rcx,1),%ymm0,%ymm3
    139f:	c5 f5 db cb          	vpand  %ymm3,%ymm1,%ymm1
    13a3:	c5 ed eb d1          	vpor   %ymm1,%ymm2,%ymm2
    13a7:	c5 bd db c6          	vpand  %ymm6,%ymm8,%ymm0
    13ab:	89 c1                	mov    %eax,%ecx
    13ad:	c5 dd db ca          	vpand  %ymm2,%ymm4,%ymm1
    13b1:	c5 fd db d1          	vpand  %ymm1,%ymm0,%ymm2
    13b5:	48 83 c0 20          	add    $0x20,%rax
    13b9:	c5 7d d7 fa          	vpmovmskb %ymm2,%r15d
    13bd:	48 83 c2 20          	add    $0x20,%rdx
    13c1:	48 83 c6 20          	add    $0x20,%rsi
    13c5:	49 83 c0 20          	add    $0x20,%r8
    13c9:	49 d3 e7             	shl    %cl,%r15
    13cc:	49 83 c1 20          	add    $0x20,%r9
    13d0:	4d 0b e7             	or     %r15,%r12
    13d3:	48 83 f8 40          	cmp    $0x40,%rax
    13d7:	0f 82 76 fc ff ff    	jb     1053 <_Z34four_columns_cmp_with_literal_P_nSPmmPPhjmmS1_jmmS1_jmmS1_jmm+0x2f3>
    13dd:	4c 8b 7d b0          	mov    -0x50(%rbp),%r15
    13e1:	49 83 c6 40          	add    $0x40,%r14
    13e5:	48 8b 7d 98          	mov    -0x68(%rbp),%rdi
    13e9:	48 8b 4d d0          	mov    -0x30(%rbp),%rcx
    13ed:	4c 8b 6d c8          	mov    -0x38(%rbp),%r13
    13f1:	48 83 c1 40          	add    $0x40,%rcx
    13f5:	4c 8b 5d c0          	mov    -0x40(%rbp),%r11
    13f9:	49 83 c5 40          	add    $0x40,%r13
    13fd:	4c 8b 55 b8          	mov    -0x48(%rbp),%r10
    1401:	49 83 c3 40          	add    $0x40,%r11
    1405:	4e 89 24 ff          	mov    %r12,(%rdi,%r15,8)
    1409:	49 83 c2 40          	add    $0x40,%r10
    140d:	49 ff c7             	inc    %r15
    1410:	4c 3b 75 a8          	cmp    -0x58(%rbp),%r14
    1414:	0f 82 00 fc ff ff    	jb     101a <_Z34four_columns_cmp_with_literal_P_nSPmmPPhjmmS1_jmmS1_jmmS1_jmm+0x2ba>
    141a:	48 8b 45 90          	mov    -0x70(%rbp),%rax
    141e:	4c 8b 8d 58 ff ff ff 	mov    -0xa8(%rbp),%r9
    1425:	4c 8b 85 50 ff ff ff 	mov    -0xb0(%rbp),%r8
    142c:	48 8b b5 60 ff ff ff 	mov    -0xa0(%rbp),%rsi
    1433:	48 89 c2             	mov    %rax,%rdx
    1436:	48 8b 45 80          	mov    -0x80(%rbp),%rax
    143a:	48 83 c0 1f          	add    $0x1f,%rax
    143e:	48 83 e0 e0          	and    $0xffffffffffffffe0,%rax
    1442:	48 03 e0             	add    %rax,%rsp
    1445:	4c 89 ca             	mov    %r9,%rdx
    1448:	48 8b 85 78 ff ff ff 	mov    -0x88(%rbp),%rax
    144f:	48 83 c0 1f          	add    $0x1f,%rax
    1453:	48 83 e0 e0          	and    $0xffffffffffffffe0,%rax
    1457:	48 03 e0             	add    %rax,%rsp
    145a:	4c 89 c2             	mov    %r8,%rdx
    145d:	48 8b 85 70 ff ff ff 	mov    -0x90(%rbp),%rax
    1464:	48 83 c0 1f          	add    $0x1f,%rax
    1468:	48 83 e0 e0          	and    $0xffffffffffffffe0,%rax
    146c:	48 03 e0             	add    %rax,%rsp
    146f:	48 89 f2             	mov    %rsi,%rdx
    1472:	48 8b 85 68 ff ff ff 	mov    -0x98(%rbp),%rax
    1479:	48 83 c0 1f          	add    $0x1f,%rax
    147d:	48 83 e0 e0          	and    $0xffffffffffffffe0,%rax
    1481:	48 03 e0             	add    %rax,%rsp
    1484:	48 8d 65 e0          	lea    -0x20(%rbp),%rsp
    1488:	41 5f                	pop    %r15
    148a:	41 5e                	pop    %r14
    148c:	41 5d                	pop    %r13
    148e:	41 5c                	pop    %r12
    1490:	5d                   	pop    %rbp
    1491:	48 89 dc             	mov    %rbx,%rsp
    1494:	5b                   	pop    %rbx
    1495:	c3                   	retq   
    1496:	0f 1f 00             	nopl   (%rax)
    1499:	0f 1f 80 00 00 00 00 	nopl   0x0(%rax)

00000000000014a0 <_Z33four_columns_cmp_with_literal_P_SPmmPPhjmmS1_jmmS1_jmmS1_jmm>:
    14a0:	53                   	push   %rbx
    14a1:	48 89 e3             	mov    %rsp,%rbx
    14a4:	48 83 e4 e0          	and    $0xffffffffffffffe0,%rsp
    14a8:	55                   	push   %rbp
    14a9:	55                   	push   %rbp
    14aa:	48 8b 6b 08          	mov    0x8(%rbx),%rbp
    14ae:	48 89 6c 24 08       	mov    %rbp,0x8(%rsp)
    14b3:	48 89 e5             	mov    %rsp,%rbp
    14b6:	41 54                	push   %r12
    14b8:	41 55                	push   %r13
    14ba:	41 56                	push   %r14
    14bc:	41 57                	push   %r15
    14be:	48 81 ec 90 00 00 00 	sub    $0x90,%rsp
    14c5:	4d 89 c4             	mov    %r8,%r12
    14c8:	4c 89 e0             	mov    %r12,%rax
    14cb:	48 c1 e0 05          	shl    $0x5,%rax
    14cf:	48 89 55 88          	mov    %rdx,-0x78(%rbp)
    14d3:	48 89 75 a8          	mov    %rsi,-0x58(%rbp)
    14d7:	48 89 85 68 ff ff ff 	mov    %rax,-0x98(%rbp)
    14de:	48 83 c0 1f          	add    $0x1f,%rax
    14e2:	48 83 e0 e0          	and    $0xffffffffffffffe0,%rax
    14e6:	48 2b e0             	sub    %rax,%rsp
    14e9:	48 89 e0             	mov    %rsp,%rax
    14ec:	48 89 c6             	mov    %rax,%rsi
    14ef:	41 89 cf             	mov    %ecx,%r15d
    14f2:	44 89 c9             	mov    %r9d,%ecx
    14f5:	48 8b 43 20          	mov    0x20(%rbx),%rax
    14f9:	49 d3 e7             	shl    %cl,%r15
    14fc:	48 c1 e0 05          	shl    $0x5,%rax
    1500:	48 89 85 70 ff ff ff 	mov    %rax,-0x90(%rbp)
    1507:	48 83 c0 1f          	add    $0x1f,%rax
    150b:	48 83 e0 e0          	and    $0xffffffffffffffe0,%rax
    150f:	48 2b e0             	sub    %rax,%rsp
    1512:	48 89 e0             	mov    %rsp,%rax
    1515:	49 89 c0             	mov    %rax,%r8
    1518:	8b 4b 28             	mov    0x28(%rbx),%ecx
    151b:	44 8b 73 18          	mov    0x18(%rbx),%r14d
    151f:	48 8b 43 40          	mov    0x40(%rbx),%rax
    1523:	49 d3 e6             	shl    %cl,%r14
    1526:	48 c1 e0 05          	shl    $0x5,%rax
    152a:	48 89 85 78 ff ff ff 	mov    %rax,-0x88(%rbp)
    1531:	48 83 c0 1f          	add    $0x1f,%rax
    1535:	48 83 e0 e0          	and    $0xffffffffffffffe0,%rax
    1539:	48 2b e0             	sub    %rax,%rsp
    153c:	48 89 e0             	mov    %rsp,%rax
    153f:	49 89 c1             	mov    %rax,%r9
    1542:	8b 4b 48             	mov    0x48(%rbx),%ecx
    1545:	44 8b 6b 38          	mov    0x38(%rbx),%r13d
    1549:	48 8b 43 60          	mov    0x60(%rbx),%rax
    154d:	49 d3 e5             	shl    %cl,%r13
    1550:	48 c1 e0 05          	shl    $0x5,%rax
    1554:	48 89 45 80          	mov    %rax,-0x80(%rbp)
    1558:	48 83 c0 1f          	add    $0x1f,%rax
    155c:	48 83 e0 e0          	and    $0xffffffffffffffe0,%rax
    1560:	48 2b e0             	sub    %rax,%rsp
    1563:	48 89 e0             	mov    %rsp,%rax
    1566:	8b 4b 68             	mov    0x68(%rbx),%ecx
    1569:	44 8b 53 58          	mov    0x58(%rbx),%r10d
    156d:	49 d3 e2             	shl    %cl,%r10
    1570:	33 c9                	xor    %ecx,%ecx
    1572:	33 d2                	xor    %edx,%edx
    1574:	4d 85 e4             	test   %r12,%r12
    1577:	76 5f                	jbe    15d8 <_Z33four_columns_cmp_with_literal_P_SPmmPPhjmmS1_jmmS1_jmmS1_jmm+0x138>
    1579:	4c 89 85 50 ff ff ff 	mov    %r8,-0xb0(%rbp)
    1580:	4e 8d 1c e5 f8 ff ff 	lea    -0x8(,%r12,8),%r11
    1587:	ff 
    1588:	48 89 7d 98          	mov    %rdi,-0x68(%rbp)
    158c:	48 89 cf             	mov    %rcx,%rdi
    158f:	44 89 d9             	mov    %r11d,%ecx
    1592:	45 89 f8             	mov    %r15d,%r8d
    1595:	41 d3 e8             	shr    %cl,%r8d
    1598:	48 ff c7             	inc    %rdi
    159b:	41 83 f0 80          	xor    $0xffffff80,%r8d
    159f:	49 83 c3 f8          	add    $0xfffffffffffffff8,%r11
    15a3:	45 0f b6 c0          	movzbl %r8b,%r8d
    15a7:	c4 c1 79 6e c0       	vmovd  %r8d,%xmm0
    15ac:	c5 f9 60 c8          	vpunpcklbw %xmm0,%xmm0,%xmm1
    15b0:	c5 f1 60 d1          	vpunpcklbw %xmm1,%xmm1,%xmm2
    15b4:	c5 f9 70 da 00       	vpshufd $0x0,%xmm2,%xmm3
    15b9:	c4 e3 65 18 e3 01    	vinsertf128 $0x1,%xmm3,%ymm3,%ymm4
    15bf:	c5 fc 29 24 32       	vmovaps %ymm4,(%rdx,%rsi,1)
    15c4:	48 83 c2 20          	add    $0x20,%rdx
    15c8:	49 3b fc             	cmp    %r12,%rdi
    15cb:	72 c2                	jb     158f <_Z33four_columns_cmp_with_literal_P_SPmmPPhjmmS1_jmmS1_jmmS1_jmm+0xef>
    15cd:	4c 8b 85 50 ff ff ff 	mov    -0xb0(%rbp),%r8
    15d4:	48 8b 7d 98          	mov    -0x68(%rbp),%rdi
    15d8:	33 d2                	xor    %edx,%edx
    15da:	45 33 ff             	xor    %r15d,%r15d
    15dd:	48 83 7b 20 00       	cmpq   $0x0,0x20(%rbx)
    15e2:	76 5e                	jbe    1642 <_Z33four_columns_cmp_with_literal_P_SPmmPPhjmmS1_jmmS1_jmmS1_jmm+0x1a2>
    15e4:	48 8b 4b 20          	mov    0x20(%rbx),%rcx
    15e8:	48 89 7d 98          	mov    %rdi,-0x68(%rbp)
    15ec:	48 89 cf             	mov    %rcx,%rdi
    15ef:	4c 89 65 a0          	mov    %r12,-0x60(%rbp)
    15f3:	4c 8d 1c cd f8 ff ff 	lea    -0x8(,%rcx,8),%r11
    15fa:	ff 
    15fb:	44 89 d9             	mov    %r11d,%ecx
    15fe:	45 89 f4             	mov    %r14d,%r12d
    1601:	41 d3 ec             	shr    %cl,%r12d
    1604:	48 ff c2             	inc    %rdx
    1607:	41 83 f4 80          	xor    $0xffffff80,%r12d
    160b:	49 83 c3 f8          	add    $0xfffffffffffffff8,%r11
    160f:	45 0f b6 e4          	movzbl %r12b,%r12d
    1613:	c4 c1 79 6e c4       	vmovd  %r12d,%xmm0
    1618:	c5 f9 60 c8          	vpunpcklbw %xmm0,%xmm0,%xmm1
    161c:	c5 f1 60 d1          	vpunpcklbw %xmm1,%xmm1,%xmm2
    1620:	c5 f9 70 da 00       	vpshufd $0x0,%xmm2,%xmm3
    1625:	c4 e3 65 18 e3 01    	vinsertf128 $0x1,%xmm3,%ymm3,%ymm4
    162b:	c4 81 7c 29 24 07    	vmovaps %ymm4,(%r15,%r8,1)
    1631:	49 83 c7 20          	add    $0x20,%r15
    1635:	48 3b d7             	cmp    %rdi,%rdx
    1638:	72 c1                	jb     15fb <_Z33four_columns_cmp_with_literal_P_SPmmPPhjmmS1_jmmS1_jmmS1_jmm+0x15b>
    163a:	48 8b 7d 98          	mov    -0x68(%rbp),%rdi
    163e:	4c 8b 65 a0          	mov    -0x60(%rbp),%r12
    1642:	33 d2                	xor    %edx,%edx
    1644:	45 33 ff             	xor    %r15d,%r15d
    1647:	48 83 7b 40 00       	cmpq   $0x0,0x40(%rbx)
    164c:	76 56                	jbe    16a4 <_Z33four_columns_cmp_with_literal_P_SPmmPPhjmmS1_jmmS1_jmmS1_jmm+0x204>
    164e:	48 8b 4b 40          	mov    0x40(%rbx),%rcx
    1652:	49 89 cb             	mov    %rcx,%r11
    1655:	4c 89 65 a0          	mov    %r12,-0x60(%rbp)
    1659:	4c 8d 34 cd f8 ff ff 	lea    -0x8(,%rcx,8),%r14
    1660:	ff 
    1661:	44 89 f1             	mov    %r14d,%ecx
    1664:	45 89 ec             	mov    %r13d,%r12d
    1667:	41 d3 ec             	shr    %cl,%r12d
    166a:	48 ff c2             	inc    %rdx
    166d:	41 83 f4 80          	xor    $0xffffff80,%r12d
    1671:	49 83 c6 f8          	add    $0xfffffffffffffff8,%r14
    1675:	45 0f b6 e4          	movzbl %r12b,%r12d
    1679:	c4 c1 79 6e c4       	vmovd  %r12d,%xmm0
    167e:	c5 f9 60 c8          	vpunpcklbw %xmm0,%xmm0,%xmm1
    1682:	c5 f1 60 d1          	vpunpcklbw %xmm1,%xmm1,%xmm2
    1686:	c5 f9 70 da 00       	vpshufd $0x0,%xmm2,%xmm3
    168b:	c4 e3 65 18 e3 01    	vinsertf128 $0x1,%xmm3,%ymm3,%ymm4
    1691:	c4 81 7c 29 24 0f    	vmovaps %ymm4,(%r15,%r9,1)
    1697:	49 83 c7 20          	add    $0x20,%r15
    169b:	49 3b d3             	cmp    %r11,%rdx
    169e:	72 c1                	jb     1661 <_Z33four_columns_cmp_with_literal_P_SPmmPPhjmmS1_jmmS1_jmmS1_jmm+0x1c1>
    16a0:	4c 8b 65 a0          	mov    -0x60(%rbp),%r12
    16a4:	45 33 f6             	xor    %r14d,%r14d
    16a7:	45 33 ff             	xor    %r15d,%r15d
    16aa:	48 83 7b 60 00       	cmpq   $0x0,0x60(%rbx)
    16af:	76 4a                	jbe    16fb <_Z33four_columns_cmp_with_literal_P_SPmmPPhjmmS1_jmmS1_jmmS1_jmm+0x25b>
    16b1:	48 8b 4b 60          	mov    0x60(%rbx),%rcx
    16b5:	49 89 cd             	mov    %rcx,%r13
    16b8:	4c 8d 1c cd f8 ff ff 	lea    -0x8(,%rcx,8),%r11
    16bf:	ff 
    16c0:	44 89 d9             	mov    %r11d,%ecx
    16c3:	44 89 d2             	mov    %r10d,%edx
    16c6:	d3 ea                	shr    %cl,%edx
    16c8:	49 ff c6             	inc    %r14
    16cb:	83 f2 80             	xor    $0xffffff80,%edx
    16ce:	49 83 c3 f8          	add    $0xfffffffffffffff8,%r11
    16d2:	0f b6 d2             	movzbl %dl,%edx
    16d5:	c5 f9 6e c2          	vmovd  %edx,%xmm0
    16d9:	c5 f9 60 c8          	vpunpcklbw %xmm0,%xmm0,%xmm1
    16dd:	c5 f1 60 d1          	vpunpcklbw %xmm1,%xmm1,%xmm2
    16e1:	c5 f9 70 da 00       	vpshufd $0x0,%xmm2,%xmm3
    16e6:	c4 e3 65 18 e3 01    	vinsertf128 $0x1,%xmm3,%ymm3,%ymm4
    16ec:	c4 c1 7c 29 24 07    	vmovaps %ymm4,(%r15,%rax,1)
    16f2:	49 83 c7 20          	add    $0x20,%r15
    16f6:	4d 3b f5             	cmp    %r13,%r14
    16f9:	72 c5                	jb     16c0 <_Z33four_columns_cmp_with_literal_P_SPmmPPhjmmS1_jmmS1_jmmS1_jmm+0x220>
    16fb:	45 33 f6             	xor    %r14d,%r14d
    16fe:	33 d2                	xor    %edx,%edx
    1700:	48 83 7d a8 00       	cmpq   $0x0,-0x58(%rbp)
    1705:	0f 86 69 04 00 00    	jbe    1b74 <_Z33four_columns_cmp_with_literal_P_SPmmPPhjmmS1_jmmS1_jmmS1_jmm+0x6d4>
    170b:	4c 8b 7b 10          	mov    0x10(%rbx),%r15
    170f:	4c 8b 6b 30          	mov    0x30(%rbx),%r13
    1713:	48 8b 4b 50          	mov    0x50(%rbx),%rcx
    1717:	4c 8b 55 88          	mov    -0x78(%rbp),%r10
    171b:	c5 7d 6f 16          	vmovdqa (%rsi),%ymm10
    171f:	c4 41 7d 6f 08       	vmovdqa (%r8),%ymm9
    1724:	c4 41 7d 6f 19       	vmovdqa (%r9),%ymm11
    1729:	c5 fd 6f 38          	vmovdqa (%rax),%ymm7
    172d:	4d 8b 12             	mov    (%r10),%r10
    1730:	4d 8b 1f             	mov    (%r15),%r11
    1733:	49 89 d7             	mov    %rdx,%r15
    1736:	4d 8b 6d 00          	mov    0x0(%r13),%r13
    173a:	48 8b 09             	mov    (%rcx),%rcx
    173d:	48 89 45 90          	mov    %rax,-0x70(%rbp)
    1741:	4c 89 8d 58 ff ff ff 	mov    %r9,-0xa8(%rbp)
    1748:	4c 89 85 50 ff ff ff 	mov    %r8,-0xb0(%rbp)
    174f:	48 89 b5 60 ff ff ff 	mov    %rsi,-0xa0(%rbp)
    1756:	4c 89 65 a0          	mov    %r12,-0x60(%rbp)
    175a:	45 33 e4             	xor    %r12d,%r12d
    175d:	4c 89 d2             	mov    %r10,%rdx
    1760:	4c 89 6d c8          	mov    %r13,-0x38(%rbp)
    1764:	33 c0                	xor    %eax,%eax
    1766:	4c 89 5d c0          	mov    %r11,-0x40(%rbp)
    176a:	4c 89 de             	mov    %r11,%rsi
    176d:	4c 89 55 b8          	mov    %r10,-0x48(%rbp)
    1771:	4d 89 e8             	mov    %r13,%r8
    1774:	48 89 7d 98          	mov    %rdi,-0x68(%rbp)
    1778:	49 89 c9             	mov    %rcx,%r9
    177b:	48 89 4d d0          	mov    %rcx,-0x30(%rbp)
    177f:	4c 89 7d b0          	mov    %r15,-0x50(%rbp)
    1783:	48 8b 7b 60          	mov    0x60(%rbx),%rdi
    1787:	4c 8b 53 40          	mov    0x40(%rbx),%r10
    178b:	4c 8b 5b 20          	mov    0x20(%rbx),%r11
    178f:	4c 8b 6d a0          	mov    -0x60(%rbp),%r13
    1793:	0f 18 82 00 04 00 00 	prefetchnta 0x400(%rdx)
    179a:	49 83 fd 01          	cmp    $0x1,%r13
    179e:	0f 18 86 00 04 00 00 	prefetchnta 0x400(%rsi)
    17a5:	41 0f 18 80 00 04 00 	prefetchnta 0x400(%r8)
    17ac:	00 
    17ad:	41 0f 18 81 00 04 00 	prefetchnta 0x400(%r9)
    17b4:	00 
    17b5:	c5 fe 6f 02          	vmovdqu (%rdx),%ymm0
    17b9:	c5 fe 6f 26          	vmovdqu (%rsi),%ymm4
    17bd:	c4 c1 7e 6f 10       	vmovdqu (%r8),%ymm2
    17c2:	c4 c1 7e 6f 09       	vmovdqu (%r9),%ymm1
    17c7:	c4 41 7d 64 c2       	vpcmpgtb %ymm10,%ymm0,%ymm8
    17cc:	c5 ad 74 c0          	vpcmpeqb %ymm0,%ymm10,%ymm0
    17d0:	c5 b5 64 f4          	vpcmpgtb %ymm4,%ymm9,%ymm6
    17d4:	c5 b5 74 ec          	vpcmpeqb %ymm4,%ymm9,%ymm5
    17d8:	c4 c1 6d 64 e3       	vpcmpgtb %ymm11,%ymm2,%ymm4
    17dd:	c5 a5 74 da          	vpcmpeqb %ymm2,%ymm11,%ymm3
    17e1:	c5 c5 64 d1          	vpcmpgtb %ymm1,%ymm7,%ymm2
    17e5:	c5 c5 74 c9          	vpcmpeqb %ymm1,%ymm7,%ymm1
    17e9:	0f 86 bd 00 00 00    	jbe    18ac <_Z33four_columns_cmp_with_literal_P_SPmmPPhjmmS1_jmmS1_jmmS1_jmm+0x40c>
    17ef:	c4 e2 7d 17 c0       	vptest %ymm0,%ymm0
    17f4:	0f 84 b2 00 00 00    	je     18ac <_Z33four_columns_cmp_with_literal_P_SPmmPPhjmmS1_jmmS1_jmmS1_jmm+0x40c>
    17fa:	4c 8b bd 60 ff ff ff 	mov    -0xa0(%rbp),%r15
    1801:	49 8d 0c 06          	lea    (%r14,%rax,1),%rcx
    1805:	49 83 fd 02          	cmp    $0x2,%r13
    1809:	c4 41 7d 6f 77 20    	vmovdqa 0x20(%r15),%ymm14
    180f:	4c 8b 7d 88          	mov    -0x78(%rbp),%r15
    1813:	4d 8b 7f 08          	mov    0x8(%r15),%r15
    1817:	c4 41 7e 6f 3c 0f    	vmovdqu (%r15,%rcx,1),%ymm15
    181d:	c4 41 05 64 e6       	vpcmpgtb %ymm14,%ymm15,%ymm12
    1822:	c4 41 7d db ec       	vpand  %ymm12,%ymm0,%ymm13
    1827:	c4 41 0d 74 e7       	vpcmpeqb %ymm15,%ymm14,%ymm12
    182c:	c4 41 3d eb c5       	vpor   %ymm13,%ymm8,%ymm8
    1831:	c4 c1 7d db c4       	vpand  %ymm12,%ymm0,%ymm0
    1836:	76 74                	jbe    18ac <_Z33four_columns_cmp_with_literal_P_SPmmPPhjmmS1_jmmS1_jmmS1_jmm+0x40c>
    1838:	c4 e2 7d 17 c0       	vptest %ymm0,%ymm0
    183d:	74 6d                	je     18ac <_Z33four_columns_cmp_with_literal_P_SPmmPPhjmmS1_jmmS1_jmmS1_jmm+0x40c>
    183f:	4c 8b bd 60 ff ff ff 	mov    -0xa0(%rbp),%r15
    1846:	49 8d 0c 06          	lea    (%r14,%rax,1),%rcx
    184a:	49 83 fd 03          	cmp    $0x3,%r13
    184e:	c4 41 7d 6f 77 40    	vmovdqa 0x40(%r15),%ymm14
    1854:	4c 8b 7d 88          	mov    -0x78(%rbp),%r15
    1858:	4d 8b 7f 10          	mov    0x10(%r15),%r15
    185c:	c4 41 7e 6f 3c 0f    	vmovdqu (%r15,%rcx,1),%ymm15
    1862:	c4 41 05 64 e6       	vpcmpgtb %ymm14,%ymm15,%ymm12
    1867:	c4 41 7d db ec       	vpand  %ymm12,%ymm0,%ymm13
    186c:	c4 41 0d 74 e7       	vpcmpeqb %ymm15,%ymm14,%ymm12
    1871:	c4 41 3d eb c5       	vpor   %ymm13,%ymm8,%ymm8
    1876:	c4 41 7d db e4       	vpand  %ymm12,%ymm0,%ymm12
    187b:	76 2f                	jbe    18ac <_Z33four_columns_cmp_with_literal_P_SPmmPPhjmmS1_jmmS1_jmmS1_jmm+0x40c>
    187d:	c4 42 7d 17 e4       	vptest %ymm12,%ymm12
    1882:	74 28                	je     18ac <_Z33four_columns_cmp_with_literal_P_SPmmPPhjmmS1_jmmS1_jmmS1_jmm+0x40c>
    1884:	4c 8b 7d 88          	mov    -0x78(%rbp),%r15
    1888:	49 8d 0c 06          	lea    (%r14,%rax,1),%rcx
    188c:	4d 8b 7f 18          	mov    0x18(%r15),%r15
    1890:	c4 c1 7e 6f 04 0f    	vmovdqu (%r15,%rcx,1),%ymm0
    1896:	48 8b 8d 60 ff ff ff 	mov    -0xa0(%rbp),%rcx
    189d:	c5 7d 64 69 60       	vpcmpgtb 0x60(%rcx),%ymm0,%ymm13
    18a2:	c4 41 1d db e5       	vpand  %ymm13,%ymm12,%ymm12
    18a7:	c4 41 3d eb c4       	vpor   %ymm12,%ymm8,%ymm8
    18ac:	49 83 fb 01          	cmp    $0x1,%r11
    18b0:	0f 86 ba 00 00 00    	jbe    1970 <_Z33four_columns_cmp_with_literal_P_SPmmPPhjmmS1_jmmS1_jmmS1_jmm+0x4d0>
    18b6:	c4 e2 7d 17 ed       	vptest %ymm5,%ymm5
    18bb:	0f 84 af 00 00 00    	je     1970 <_Z33four_columns_cmp_with_literal_P_SPmmPPhjmmS1_jmmS1_jmmS1_jmm+0x4d0>
    18c1:	4c 8b bd 50 ff ff ff 	mov    -0xb0(%rbp),%r15
    18c8:	49 8d 0c 06          	lea    (%r14,%rax,1),%rcx
    18cc:	49 83 fb 02          	cmp    $0x2,%r11
    18d0:	c4 41 7d 6f 6f 20    	vmovdqa 0x20(%r15),%ymm13
    18d6:	4c 8b 7b 10          	mov    0x10(%rbx),%r15
    18da:	4d 8b 7f 08          	mov    0x8(%r15),%r15
    18de:	c4 41 7e 6f 34 0f    	vmovdqu (%r15,%rcx,1),%ymm14
    18e4:	c4 c1 15 64 c6       	vpcmpgtb %ymm14,%ymm13,%ymm0
    18e9:	c5 55 db e0          	vpand  %ymm0,%ymm5,%ymm12
    18ed:	c4 41 15 74 fe       	vpcmpeqb %ymm14,%ymm13,%ymm15
    18f2:	c4 c1 4d eb f4       	vpor   %ymm12,%ymm6,%ymm6
    18f7:	c4 41 55 db f7       	vpand  %ymm15,%ymm5,%ymm14
    18fc:	76 72                	jbe    1970 <_Z33four_columns_cmp_with_literal_P_SPmmPPhjmmS1_jmmS1_jmmS1_jmm+0x4d0>
    18fe:	c4 42 7d 17 f6       	vptest %ymm14,%ymm14
    1903:	74 6b                	je     1970 <_Z33four_columns_cmp_with_literal_P_SPmmPPhjmmS1_jmmS1_jmmS1_jmm+0x4d0>
    1905:	4c 8b bd 50 ff ff ff 	mov    -0xb0(%rbp),%r15
    190c:	49 8d 0c 06          	lea    (%r14,%rax,1),%rcx
    1910:	49 83 fb 03          	cmp    $0x3,%r11
    1914:	c4 41 7d 6f 67 40    	vmovdqa 0x40(%r15),%ymm12
    191a:	4c 8b 7b 10          	mov    0x10(%rbx),%r15
    191e:	4d 8b 7f 10          	mov    0x10(%r15),%r15
    1922:	c4 41 7e 6f 2c 0f    	vmovdqu (%r15,%rcx,1),%ymm13
    1928:	c4 c1 1d 64 c5       	vpcmpgtb %ymm13,%ymm12,%ymm0
    192d:	c5 8d db e8          	vpand  %ymm0,%ymm14,%ymm5
    1931:	c4 41 1d 74 fd       	vpcmpeqb %ymm13,%ymm12,%ymm15
    1936:	c5 cd eb f5          	vpor   %ymm5,%ymm6,%ymm6
    193a:	c4 c1 0d db ef       	vpand  %ymm15,%ymm14,%ymm5
    193f:	76 2f                	jbe    1970 <_Z33four_columns_cmp_with_literal_P_SPmmPPhjmmS1_jmmS1_jmmS1_jmm+0x4d0>
    1941:	c4 e2 7d 17 ed       	vptest %ymm5,%ymm5
    1946:	74 28                	je     1970 <_Z33four_columns_cmp_with_literal_P_SPmmPPhjmmS1_jmmS1_jmmS1_jmm+0x4d0>
    1948:	4c 8b bd 50 ff ff ff 	mov    -0xb0(%rbp),%r15
    194f:	49 8d 0c 06          	lea    (%r14,%rax,1),%rcx
    1953:	c4 c1 7d 6f 47 60    	vmovdqa 0x60(%r15),%ymm0
    1959:	4c 8b 7b 10          	mov    0x10(%rbx),%r15
    195d:	4d 8b 7f 18          	mov    0x18(%r15),%r15
    1961:	c4 41 7d 64 24 0f    	vpcmpgtb (%r15,%rcx,1),%ymm0,%ymm12
    1967:	c4 c1 55 db ec       	vpand  %ymm12,%ymm5,%ymm5
    196c:	c5 cd eb f5          	vpor   %ymm5,%ymm6,%ymm6
    1970:	49 83 fa 01          	cmp    $0x1,%r10
    1974:	0f 86 b6 00 00 00    	jbe    1a30 <_Z33four_columns_cmp_with_literal_P_SPmmPPhjmmS1_jmmS1_jmmS1_jmm+0x590>
    197a:	c4 e2 7d 17 db       	vptest %ymm3,%ymm3
    197f:	0f 84 ab 00 00 00    	je     1a30 <_Z33four_columns_cmp_with_literal_P_SPmmPPhjmmS1_jmmS1_jmmS1_jmm+0x590>
    1985:	4c 8b bd 58 ff ff ff 	mov    -0xa8(%rbp),%r15
    198c:	49 8d 0c 06          	lea    (%r14,%rax,1),%rcx
    1990:	49 83 fa 02          	cmp    $0x2,%r10
    1994:	c4 41 7d 6f 67 20    	vmovdqa 0x20(%r15),%ymm12
    199a:	4c 8b 7b 30          	mov    0x30(%rbx),%r15
    199e:	4d 8b 7f 08          	mov    0x8(%r15),%r15
    19a2:	c4 41 7e 6f 2c 0f    	vmovdqu (%r15,%rcx,1),%ymm13
    19a8:	c4 c1 15 64 c4       	vpcmpgtb %ymm12,%ymm13,%ymm0
    19ad:	c5 e5 db e8          	vpand  %ymm0,%ymm3,%ymm5
    19b1:	c4 41 1d 74 f5       	vpcmpeqb %ymm13,%ymm12,%ymm14
    19b6:	c5 dd eb e5          	vpor   %ymm5,%ymm4,%ymm4
    19ba:	c4 41 65 db ee       	vpand  %ymm14,%ymm3,%ymm13
    19bf:	76 6f                	jbe    1a30 <_Z33four_columns_cmp_with_literal_P_SPmmPPhjmmS1_jmmS1_jmmS1_jmm+0x590>
    19c1:	c4 42 7d 17 ed       	vptest %ymm13,%ymm13
    19c6:	74 68                	je     1a30 <_Z33four_columns_cmp_with_literal_P_SPmmPPhjmmS1_jmmS1_jmmS1_jmm+0x590>
    19c8:	4c 8b bd 58 ff ff ff 	mov    -0xa8(%rbp),%r15
    19cf:	49 8d 0c 06          	lea    (%r14,%rax,1),%rcx
    19d3:	49 83 fa 03          	cmp    $0x3,%r10
    19d7:	c4 c1 7d 6f 6f 40    	vmovdqa 0x40(%r15),%ymm5
    19dd:	4c 8b 7b 30          	mov    0x30(%rbx),%r15
    19e1:	4d 8b 7f 10          	mov    0x10(%r15),%r15
    19e5:	c4 41 7e 6f 24 0f    	vmovdqu (%r15,%rcx,1),%ymm12
    19eb:	c5 9d 64 c5          	vpcmpgtb %ymm5,%ymm12,%ymm0
    19ef:	c5 95 db d8          	vpand  %ymm0,%ymm13,%ymm3
    19f3:	c4 41 55 74 f4       	vpcmpeqb %ymm12,%ymm5,%ymm14
    19f8:	c5 dd eb e3          	vpor   %ymm3,%ymm4,%ymm4
    19fc:	c4 c1 15 db de       	vpand  %ymm14,%ymm13,%ymm3
    1a01:	76 2d                	jbe    1a30 <_Z33four_columns_cmp_with_literal_P_SPmmPPhjmmS1_jmmS1_jmmS1_jmm+0x590>
    1a03:	c4 e2 7d 17 db       	vptest %ymm3,%ymm3
    1a08:	74 26                	je     1a30 <_Z33four_columns_cmp_with_literal_P_SPmmPPhjmmS1_jmmS1_jmmS1_jmm+0x590>
    1a0a:	4c 8b 7b 30          	mov    0x30(%rbx),%r15
    1a0e:	49 8d 0c 06          	lea    (%r14,%rax,1),%rcx
    1a12:	4d 8b 7f 18          	mov    0x18(%r15),%r15
    1a16:	c4 c1 7e 6f 04 0f    	vmovdqu (%r15,%rcx,1),%ymm0
    1a1c:	48 8b 8d 58 ff ff ff 	mov    -0xa8(%rbp),%rcx
    1a23:	c5 fd 64 69 60       	vpcmpgtb 0x60(%rcx),%ymm0,%ymm5
    1a28:	c5 e5 db dd          	vpand  %ymm5,%ymm3,%ymm3
    1a2c:	c5 dd eb e3          	vpor   %ymm3,%ymm4,%ymm4
    1a30:	48 83 ff 01          	cmp    $0x1,%rdi
    1a34:	0f 86 ad 00 00 00    	jbe    1ae7 <_Z33four_columns_cmp_with_literal_P_SPmmPPhjmmS1_jmmS1_jmmS1_jmm+0x647>
    1a3a:	c4 e2 7d 17 c9       	vptest %ymm1,%ymm1
    1a3f:	0f 84 a2 00 00 00    	je     1ae7 <_Z33four_columns_cmp_with_literal_P_SPmmPPhjmmS1_jmmS1_jmmS1_jmm+0x647>
    1a45:	4c 8b 7d 90          	mov    -0x70(%rbp),%r15
    1a49:	49 8d 0c 06          	lea    (%r14,%rax,1),%rcx
    1a4d:	48 83 ff 02          	cmp    $0x2,%rdi
    1a51:	c4 c1 7d 6f 6f 20    	vmovdqa 0x20(%r15),%ymm5
    1a57:	4c 8b 7b 50          	mov    0x50(%rbx),%r15
    1a5b:	4d 8b 7f 08          	mov    0x8(%r15),%r15
    1a5f:	c4 41 7e 6f 24 0f    	vmovdqu (%r15,%rcx,1),%ymm12
    1a65:	c4 c1 55 64 c4       	vpcmpgtb %ymm12,%ymm5,%ymm0
    1a6a:	c5 f5 db d8          	vpand  %ymm0,%ymm1,%ymm3
    1a6e:	c4 41 55 74 ec       	vpcmpeqb %ymm12,%ymm5,%ymm13
    1a73:	c5 ed eb d3          	vpor   %ymm3,%ymm2,%ymm2
    1a77:	c4 41 75 db e5       	vpand  %ymm13,%ymm1,%ymm12
    1a7c:	76 69                	jbe    1ae7 <_Z33four_columns_cmp_with_literal_P_SPmmPPhjmmS1_jmmS1_jmmS1_jmm+0x647>
    1a7e:	c4 42 7d 17 e4       	vptest %ymm12,%ymm12
    1a83:	74 62                	je     1ae7 <_Z33four_columns_cmp_with_literal_P_SPmmPPhjmmS1_jmmS1_jmmS1_jmm+0x647>
    1a85:	4c 8b 7d 90          	mov    -0x70(%rbp),%r15
    1a89:	49 8d 0c 06          	lea    (%r14,%rax,1),%rcx
    1a8d:	48 83 ff 03          	cmp    $0x3,%rdi
    1a91:	c4 c1 7d 6f 5f 40    	vmovdqa 0x40(%r15),%ymm3
    1a97:	4c 8b 7b 50          	mov    0x50(%rbx),%r15
    1a9b:	4d 8b 7f 10          	mov    0x10(%r15),%r15
    1a9f:	c4 c1 7e 6f 2c 0f    	vmovdqu (%r15,%rcx,1),%ymm5
    1aa5:	c5 e5 64 c5          	vpcmpgtb %ymm5,%ymm3,%ymm0
    1aa9:	c5 9d db c8          	vpand  %ymm0,%ymm12,%ymm1
    1aad:	c5 65 74 ed          	vpcmpeqb %ymm5,%ymm3,%ymm13
    1ab1:	c5 ed eb d1          	vpor   %ymm1,%ymm2,%ymm2
    1ab5:	c4 c1 1d db cd       	vpand  %ymm13,%ymm12,%ymm1
    1aba:	76 2b                	jbe    1ae7 <_Z33four_columns_cmp_with_literal_P_SPmmPPhjmmS1_jmmS1_jmmS1_jmm+0x647>
    1abc:	c4 e2 7d 17 c9       	vptest %ymm1,%ymm1
    1ac1:	74 24                	je     1ae7 <_Z33four_columns_cmp_with_literal_P_SPmmPPhjmmS1_jmmS1_jmmS1_jmm+0x647>
    1ac3:	4c 8b 7d 90          	mov    -0x70(%rbp),%r15
    1ac7:	49 8d 0c 06          	lea    (%r14,%rax,1),%rcx
    1acb:	c4 c1 7d 6f 47 60    	vmovdqa 0x60(%r15),%ymm0
    1ad1:	4c 8b 7b 50          	mov    0x50(%rbx),%r15
    1ad5:	4d 8b 7f 18          	mov    0x18(%r15),%r15
    1ad9:	c4 c1 7d 64 1c 0f    	vpcmpgtb (%r15,%rcx,1),%ymm0,%ymm3
    1adf:	c5 f5 db cb          	vpand  %ymm3,%ymm1,%ymm1
    1ae3:	c5 ed eb d1          	vpor   %ymm1,%ymm2,%ymm2
    1ae7:	c5 bd db c6          	vpand  %ymm6,%ymm8,%ymm0
    1aeb:	89 c1                	mov    %eax,%ecx
    1aed:	c5 dd db ca          	vpand  %ymm2,%ymm4,%ymm1
    1af1:	c5 fd db d1          	vpand  %ymm1,%ymm0,%ymm2
    1af5:	48 83 c0 20          	add    $0x20,%rax
    1af9:	c5 7d d7 fa          	vpmovmskb %ymm2,%r15d
    1afd:	48 83 c2 20          	add    $0x20,%rdx
    1b01:	48 83 c6 20          	add    $0x20,%rsi
    1b05:	49 83 c0 20          	add    $0x20,%r8
    1b09:	49 d3 e7             	shl    %cl,%r15
    1b0c:	49 83 c1 20          	add    $0x20,%r9
    1b10:	4d 0b e7             	or     %r15,%r12
    1b13:	48 83 f8 40          	cmp    $0x40,%rax
    1b17:	0f 82 76 fc ff ff    	jb     1793 <_Z33four_columns_cmp_with_literal_P_SPmmPPhjmmS1_jmmS1_jmmS1_jmm+0x2f3>
    1b1d:	4c 8b 7d b0          	mov    -0x50(%rbp),%r15
    1b21:	49 83 c6 40          	add    $0x40,%r14
    1b25:	48 8b 7d 98          	mov    -0x68(%rbp),%rdi
    1b29:	48 8b 4d d0          	mov    -0x30(%rbp),%rcx
    1b2d:	4c 8b 6d c8          	mov    -0x38(%rbp),%r13
    1b31:	48 83 c1 40          	add    $0x40,%rcx
    1b35:	4c 8b 5d c0          	mov    -0x40(%rbp),%r11
    1b39:	49 83 c5 40          	add    $0x40,%r13
    1b3d:	4c 8b 55 b8          	mov    -0x48(%rbp),%r10
    1b41:	49 83 c3 40          	add    $0x40,%r11
    1b45:	4e 0f c3 24 ff       	movnti %r12,(%rdi,%r15,8)
    1b4a:	49 83 c2 40          	add    $0x40,%r10
    1b4e:	49 ff c7             	inc    %r15
    1b51:	4c 3b 75 a8          	cmp    -0x58(%rbp),%r14
    1b55:	0f 82 ff fb ff ff    	jb     175a <_Z33four_columns_cmp_with_literal_P_SPmmPPhjmmS1_jmmS1_jmmS1_jmm+0x2ba>
    1b5b:	48 8b 45 90          	mov    -0x70(%rbp),%rax
    1b5f:	4c 8b 8d 58 ff ff ff 	mov    -0xa8(%rbp),%r9
    1b66:	4c 8b 85 50 ff ff ff 	mov    -0xb0(%rbp),%r8
    1b6d:	48 8b b5 60 ff ff ff 	mov    -0xa0(%rbp),%rsi
    1b74:	48 89 c2             	mov    %rax,%rdx
    1b77:	48 8b 45 80          	mov    -0x80(%rbp),%rax
    1b7b:	48 83 c0 1f          	add    $0x1f,%rax
    1b7f:	48 83 e0 e0          	and    $0xffffffffffffffe0,%rax
    1b83:	48 03 e0             	add    %rax,%rsp
    1b86:	4c 89 ca             	mov    %r9,%rdx
    1b89:	48 8b 85 78 ff ff ff 	mov    -0x88(%rbp),%rax
    1b90:	48 83 c0 1f          	add    $0x1f,%rax
    1b94:	48 83 e0 e0          	and    $0xffffffffffffffe0,%rax
    1b98:	48 03 e0             	add    %rax,%rsp
    1b9b:	4c 89 c2             	mov    %r8,%rdx
    1b9e:	48 8b 85 70 ff ff ff 	mov    -0x90(%rbp),%rax
    1ba5:	48 83 c0 1f          	add    $0x1f,%rax
    1ba9:	48 83 e0 e0          	and    $0xffffffffffffffe0,%rax
    1bad:	48 03 e0             	add    %rax,%rsp
    1bb0:	48 89 f2             	mov    %rsi,%rdx
    1bb3:	48 8b 85 68 ff ff ff 	mov    -0x98(%rbp),%rax
    1bba:	48 83 c0 1f          	add    $0x1f,%rax
    1bbe:	48 83 e0 e0          	and    $0xffffffffffffffe0,%rax
    1bc2:	48 03 e0             	add    %rax,%rsp
    1bc5:	48 8d 65 e0          	lea    -0x20(%rbp),%rsp
    1bc9:	41 5f                	pop    %r15
    1bcb:	41 5e                	pop    %r14
    1bcd:	41 5d                	pop    %r13
    1bcf:	41 5c                	pop    %r12
    1bd1:	5d                   	pop    %rbp
    1bd2:	48 89 dc             	mov    %rbx,%rsp
    1bd5:	5b                   	pop    %rbx
    1bd6:	c3                   	retq   
    1bd7:	66 0f 1f 84 00 00 00 	nopw   0x0(%rax,%rax,1)
    1bde:	00 00 

0000000000001be0 <_Z37four_columns_c_cmp_with_literal_nP_nSPmmPPhjmmS1_jmmS1_jmmS1_jmm>:
    1be0:	53                   	push   %rbx
    1be1:	48 89 e3             	mov    %rsp,%rbx
    1be4:	48 83 e4 e0          	and    $0xffffffffffffffe0,%rsp
    1be8:	55                   	push   %rbp
    1be9:	55                   	push   %rbp
    1bea:	48 8b 6b 08          	mov    0x8(%rbx),%rbp
    1bee:	48 89 6c 24 08       	mov    %rbp,0x8(%rsp)
    1bf3:	48 89 e5             	mov    %rsp,%rbp
    1bf6:	41 54                	push   %r12
    1bf8:	41 55                	push   %r13
    1bfa:	41 56                	push   %r14
    1bfc:	41 57                	push   %r15
    1bfe:	48 83 ec 70          	sub    $0x70,%rsp
    1c02:	4d 89 c4             	mov    %r8,%r12
    1c05:	4c 89 e0             	mov    %r12,%rax
    1c08:	4d 89 cd             	mov    %r9,%r13
    1c0b:	48 c1 e0 05          	shl    $0x5,%rax
    1c0f:	49 89 f1             	mov    %rsi,%r9
    1c12:	48 89 55 98          	mov    %rdx,-0x68(%rbp)
    1c16:	48 89 85 78 ff ff ff 	mov    %rax,-0x88(%rbp)
    1c1d:	48 83 c0 1f          	add    $0x1f,%rax
    1c21:	48 83 e0 e0          	and    $0xffffffffffffffe0,%rax
    1c25:	48 2b e0             	sub    %rax,%rsp
    1c28:	48 89 e0             	mov    %rsp,%rax
    1c2b:	48 89 45 a8          	mov    %rax,-0x58(%rbp)
    1c2f:	41 89 ce             	mov    %ecx,%r14d
    1c32:	44 89 e9             	mov    %r13d,%ecx
    1c35:	48 8b 43 20          	mov    0x20(%rbx),%rax
    1c39:	49 d3 e6             	shl    %cl,%r14
    1c3c:	48 c1 e0 05          	shl    $0x5,%rax
    1c40:	48 89 45 80          	mov    %rax,-0x80(%rbp)
    1c44:	48 83 c0 1f          	add    $0x1f,%rax
    1c48:	48 83 e0 e0          	and    $0xffffffffffffffe0,%rax
    1c4c:	48 2b e0             	sub    %rax,%rsp
    1c4f:	48 89 e0             	mov    %rsp,%rax
    1c52:	48 89 45 a0          	mov    %rax,-0x60(%rbp)
    1c56:	4c 8b 43 40          	mov    0x40(%rbx),%r8
    1c5a:	4c 89 c0             	mov    %r8,%rax
    1c5d:	8b 4b 28             	mov    0x28(%rbx),%ecx
    1c60:	44 8b 7b 18          	mov    0x18(%rbx),%r15d
    1c64:	49 d3 e7             	shl    %cl,%r15
    1c67:	48 c1 e0 05          	shl    $0x5,%rax
    1c6b:	48 89 45 88          	mov    %rax,-0x78(%rbp)
    1c6f:	48 83 c0 1f          	add    $0x1f,%rax
    1c73:	48 83 e0 e0          	and    $0xffffffffffffffe0,%rax
    1c77:	48 2b e0             	sub    %rax,%rsp
    1c7a:	48 89 e0             	mov    %rsp,%rax
    1c7d:	48 89 45 b0          	mov    %rax,-0x50(%rbp)
    1c81:	48 8b 73 60          	mov    0x60(%rbx),%rsi
    1c85:	48 89 f0             	mov    %rsi,%rax
    1c88:	8b 4b 48             	mov    0x48(%rbx),%ecx
    1c8b:	44 8b 6b 38          	mov    0x38(%rbx),%r13d
    1c8f:	49 d3 e5             	shl    %cl,%r13
    1c92:	48 c1 e0 05          	shl    $0x5,%rax
    1c96:	48 89 45 90          	mov    %rax,-0x70(%rbp)
    1c9a:	48 83 c0 1f          	add    $0x1f,%rax
    1c9e:	48 83 e0 e0          	and    $0xffffffffffffffe0,%rax
    1ca2:	48 2b e0             	sub    %rax,%rsp
    1ca5:	48 89 e0             	mov    %rsp,%rax
    1ca8:	8b 4b 68             	mov    0x68(%rbx),%ecx
    1cab:	44 8b 53 58          	mov    0x58(%rbx),%r10d
    1caf:	49 d3 e2             	shl    %cl,%r10
    1cb2:	33 c9                	xor    %ecx,%ecx
    1cb4:	33 d2                	xor    %edx,%edx
    1cb6:	4d 85 e4             	test   %r12,%r12
    1cb9:	76 5d                	jbe    1d18 <_Z37four_columns_c_cmp_with_literal_nP_nSPmmPPhjmmS1_jmmS1_jmmS1_jmm+0x138>
    1cbb:	4c 89 4d b8          	mov    %r9,-0x48(%rbp)
    1cbf:	4e 8d 1c e5 f8 ff ff 	lea    -0x8(,%r12,8),%r11
    1cc6:	ff 
    1cc7:	48 8b 75 a8          	mov    -0x58(%rbp),%rsi
    1ccb:	49 89 c8             	mov    %rcx,%r8
    1cce:	44 89 d9             	mov    %r11d,%ecx
    1cd1:	45 89 f1             	mov    %r14d,%r9d
    1cd4:	41 d3 e9             	shr    %cl,%r9d
    1cd7:	49 ff c0             	inc    %r8
    1cda:	41 83 f1 80          	xor    $0xffffff80,%r9d
    1cde:	49 83 c3 f8          	add    $0xfffffffffffffff8,%r11
    1ce2:	45 0f b6 c9          	movzbl %r9b,%r9d
    1ce6:	c4 c1 79 6e c1       	vmovd  %r9d,%xmm0
    1ceb:	c5 f9 60 c8          	vpunpcklbw %xmm0,%xmm0,%xmm1
    1cef:	c5 f1 60 d1          	vpunpcklbw %xmm1,%xmm1,%xmm2
    1cf3:	c5 f9 70 da 00       	vpshufd $0x0,%xmm2,%xmm3
    1cf8:	c4 e3 65 18 e3 01    	vinsertf128 $0x1,%xmm3,%ymm3,%ymm4
    1cfe:	c5 fc 29 24 32       	vmovaps %ymm4,(%rdx,%rsi,1)
    1d03:	48 83 c2 20          	add    $0x20,%rdx
    1d07:	4d 3b c4             	cmp    %r12,%r8
    1d0a:	72 c2                	jb     1cce <_Z37four_columns_c_cmp_with_literal_nP_nSPmmPPhjmmS1_jmmS1_jmmS1_jmm+0xee>
    1d0c:	48 8b 73 60          	mov    0x60(%rbx),%rsi
    1d10:	4c 8b 43 40          	mov    0x40(%rbx),%r8
    1d14:	4c 8b 4d b8          	mov    -0x48(%rbp),%r9
    1d18:	33 d2                	xor    %edx,%edx
    1d1a:	45 33 f6             	xor    %r14d,%r14d
    1d1d:	48 83 7b 20 00       	cmpq   $0x0,0x20(%rbx)
    1d22:	76 68                	jbe    1d8c <_Z37four_columns_c_cmp_with_literal_nP_nSPmmPPhjmmS1_jmmS1_jmmS1_jmm+0x1ac>
    1d24:	48 8b 4b 20          	mov    0x20(%rbx),%rcx
    1d28:	49 89 c8             	mov    %rcx,%r8
    1d2b:	4c 89 a5 70 ff ff ff 	mov    %r12,-0x90(%rbp)
    1d32:	48 8b 75 a0          	mov    -0x60(%rbp),%rsi
    1d36:	4c 8d 1c cd f8 ff ff 	lea    -0x8(,%rcx,8),%r11
    1d3d:	ff 
    1d3e:	44 89 d9             	mov    %r11d,%ecx
    1d41:	45 89 fc             	mov    %r15d,%r12d
    1d44:	41 d3 ec             	shr    %cl,%r12d
    1d47:	48 ff c2             	inc    %rdx
    1d4a:	41 83 f4 80          	xor    $0xffffff80,%r12d
    1d4e:	49 83 c3 f8          	add    $0xfffffffffffffff8,%r11
    1d52:	45 0f b6 e4          	movzbl %r12b,%r12d
    1d56:	c4 c1 79 6e c4       	vmovd  %r12d,%xmm0
    1d5b:	c5 f9 60 c8          	vpunpcklbw %xmm0,%xmm0,%xmm1
    1d5f:	c5 f1 60 d1          	vpunpcklbw %xmm1,%xmm1,%xmm2
    1d63:	c5 f9 70 da 00       	vpshufd $0x0,%xmm2,%xmm3
    1d68:	c4 e3 65 18 e3 01    	vinsertf128 $0x1,%xmm3,%ymm3,%ymm4
    1d6e:	c4 c1 7c 29 24 36    	vmovaps %ymm4,(%r14,%rsi,1)
    1d74:	49 83 c6 20          	add    $0x20,%r14
    1d78:	49 3b d0             	cmp    %r8,%rdx
    1d7b:	72 c1                	jb     1d3e <_Z37four_columns_c_cmp_with_literal_nP_nSPmmPPhjmmS1_jmmS1_jmmS1_jmm+0x15e>
    1d7d:	48 8b 73 60          	mov    0x60(%rbx),%rsi
    1d81:	4c 8b 43 40          	mov    0x40(%rbx),%r8
    1d85:	4c 8b a5 70 ff ff ff 	mov    -0x90(%rbp),%r12
    1d8c:	45 33 f6             	xor    %r14d,%r14d
    1d8f:	45 33 ff             	xor    %r15d,%r15d
    1d92:	4d 85 c0             	test   %r8,%r8
    1d95:	76 4b                	jbe    1de2 <_Z37four_columns_c_cmp_with_literal_nP_nSPmmPPhjmmS1_jmmS1_jmmS1_jmm+0x202>
    1d97:	48 8b 75 b0          	mov    -0x50(%rbp),%rsi
    1d9b:	4e 8d 1c c5 f8 ff ff 	lea    -0x8(,%r8,8),%r11
    1da2:	ff 
    1da3:	44 89 d9             	mov    %r11d,%ecx
    1da6:	44 89 ea             	mov    %r13d,%edx
    1da9:	d3 ea                	shr    %cl,%edx
    1dab:	49 ff c6             	inc    %r14
    1dae:	83 f2 80             	xor    $0xffffff80,%edx
    1db1:	49 83 c3 f8          	add    $0xfffffffffffffff8,%r11
    1db5:	0f b6 d2             	movzbl %dl,%edx
    1db8:	c5 f9 6e c2          	vmovd  %edx,%xmm0
    1dbc:	c5 f9 60 c8          	vpunpcklbw %xmm0,%xmm0,%xmm1
    1dc0:	c5 f1 60 d1          	vpunpcklbw %xmm1,%xmm1,%xmm2
    1dc4:	c5 f9 70 da 00       	vpshufd $0x0,%xmm2,%xmm3
    1dc9:	c4 e3 65 18 e3 01    	vinsertf128 $0x1,%xmm3,%ymm3,%ymm4
    1dcf:	c4 c1 7c 29 24 37    	vmovaps %ymm4,(%r15,%rsi,1)
    1dd5:	49 83 c7 20          	add    $0x20,%r15
    1dd9:	4d 3b f0             	cmp    %r8,%r14
    1ddc:	72 c5                	jb     1da3 <_Z37four_columns_c_cmp_with_literal_nP_nSPmmPPhjmmS1_jmmS1_jmmS1_jmm+0x1c3>
    1dde:	48 8b 73 60          	mov    0x60(%rbx),%rsi
    1de2:	45 33 ed             	xor    %r13d,%r13d
    1de5:	45 33 db             	xor    %r11d,%r11d
    1de8:	48 85 f6             	test   %rsi,%rsi
    1deb:	76 47                	jbe    1e34 <_Z37four_columns_c_cmp_with_literal_nP_nSPmmPPhjmmS1_jmmS1_jmmS1_jmm+0x254>
    1ded:	4c 8d 34 f5 f8 ff ff 	lea    -0x8(,%rsi,8),%r14
    1df4:	ff 
    1df5:	44 89 f1             	mov    %r14d,%ecx
    1df8:	45 89 d7             	mov    %r10d,%r15d
    1dfb:	41 d3 ef             	shr    %cl,%r15d
    1dfe:	49 ff c5             	inc    %r13
    1e01:	41 83 f7 80          	xor    $0xffffff80,%r15d
    1e05:	49 83 c6 f8          	add    $0xfffffffffffffff8,%r14
    1e09:	45 0f b6 ff          	movzbl %r15b,%r15d
    1e0d:	c4 c1 79 6e c7       	vmovd  %r15d,%xmm0
    1e12:	c5 f9 60 c8          	vpunpcklbw %xmm0,%xmm0,%xmm1
    1e16:	c5 f1 60 d1          	vpunpcklbw %xmm1,%xmm1,%xmm2
    1e1a:	c5 f9 70 da 00       	vpshufd $0x0,%xmm2,%xmm3
    1e1f:	c4 e3 65 18 e3 01    	vinsertf128 $0x1,%xmm3,%ymm3,%ymm4
    1e25:	c4 c1 7c 29 24 03    	vmovaps %ymm4,(%r11,%rax,1)
    1e2b:	49 83 c3 20          	add    $0x20,%r11
    1e2f:	4c 3b ee             	cmp    %rsi,%r13
    1e32:	72 c1                	jb     1df5 <_Z37four_columns_c_cmp_with_literal_nP_nSPmmPPhjmmS1_jmmS1_jmmS1_jmm+0x215>
    1e34:	45 33 d2             	xor    %r10d,%r10d
    1e37:	33 c9                	xor    %ecx,%ecx
    1e39:	4d 85 c9             	test   %r9,%r9
    1e3c:	0f 86 df 03 00 00    	jbe    2221 <_Z37four_columns_c_cmp_with_literal_nP_nSPmmPPhjmmS1_jmmS1_jmmS1_jmm+0x641>
    1e42:	4c 8b 6d a8          	mov    -0x58(%rbp),%r13
    1e46:	4c 8b 5d b0          	mov    -0x50(%rbp),%r11
    1e4a:	4c 8b 75 a0          	mov    -0x60(%rbp),%r14
    1e4e:	c4 41 7d 6f 55 00    	vmovdqa 0x0(%r13),%ymm10
    1e54:	c4 41 7d 6f 1b       	vmovdqa (%r11),%ymm11
    1e59:	c4 41 7d 6f 0e       	vmovdqa (%r14),%ymm9
    1e5e:	c5 fd 6f 38          	vmovdqa (%rax),%ymm7
    1e62:	48 8b 53 10          	mov    0x10(%rbx),%rdx
    1e66:	4c 8b 7b 30          	mov    0x30(%rbx),%r15
    1e6a:	4c 8b 5b 50          	mov    0x50(%rbx),%r11
    1e6e:	4c 8b 6d 98          	mov    -0x68(%rbp),%r13
    1e72:	4c 8b 32             	mov    (%rdx),%r14
    1e75:	4d 8b 3f             	mov    (%r15),%r15
    1e78:	4d 8b 6d 00          	mov    0x0(%r13),%r13
    1e7c:	4d 8b 1b             	mov    (%r11),%r11
    1e7f:	48 89 85 70 ff ff ff 	mov    %rax,-0x90(%rbp)
    1e86:	33 c0                	xor    %eax,%eax
    1e88:	48 89 7d c0          	mov    %rdi,-0x40(%rbp)
    1e8c:	33 d2                	xor    %edx,%edx
    1e8e:	48 89 4d c8          	mov    %rcx,-0x38(%rbp)
    1e92:	4c 89 4d b8          	mov    %r9,-0x48(%rbp)
    1e96:	48 8b 7b 20          	mov    0x20(%rbx),%rdi
    1e9a:	c4 a1 7e 6f 04 2a    	vmovdqu (%rdx,%r13,1),%ymm0
    1ea0:	49 83 fc 01          	cmp    $0x1,%r12
    1ea4:	c4 a1 7e 6f 24 32    	vmovdqu (%rdx,%r14,1),%ymm4
    1eaa:	c4 a1 7e 6f 14 3a    	vmovdqu (%rdx,%r15,1),%ymm2
    1eb0:	c4 a1 7e 6f 0c 1a    	vmovdqu (%rdx,%r11,1),%ymm1
    1eb6:	c4 41 7d 64 c2       	vpcmpgtb %ymm10,%ymm0,%ymm8
    1ebb:	c5 ad 74 c0          	vpcmpeqb %ymm0,%ymm10,%ymm0
    1ebf:	c5 b5 64 f4          	vpcmpgtb %ymm4,%ymm9,%ymm6
    1ec3:	c5 b5 74 ec          	vpcmpeqb %ymm4,%ymm9,%ymm5
    1ec7:	c4 c1 6d 64 e3       	vpcmpgtb %ymm11,%ymm2,%ymm4
    1ecc:	c5 a5 74 da          	vpcmpeqb %ymm2,%ymm11,%ymm3
    1ed0:	c5 c5 64 d1          	vpcmpgtb %ymm1,%ymm7,%ymm2
    1ed4:	c5 c5 74 c9          	vpcmpeqb %ymm1,%ymm7,%ymm1
    1ed8:	0f 86 b4 00 00 00    	jbe    1f92 <_Z37four_columns_c_cmp_with_literal_nP_nSPmmPPhjmmS1_jmmS1_jmmS1_jmm+0x3b2>
    1ede:	c4 e2 7d 17 c0       	vptest %ymm0,%ymm0
    1ee3:	0f 84 a9 00 00 00    	je     1f92 <_Z37four_columns_c_cmp_with_literal_nP_nSPmmPPhjmmS1_jmmS1_jmmS1_jmm+0x3b2>
    1ee9:	4c 8b 4d a8          	mov    -0x58(%rbp),%r9
    1eed:	49 8d 0c 12          	lea    (%r10,%rdx,1),%rcx
    1ef1:	49 83 fc 02          	cmp    $0x2,%r12
    1ef5:	c4 41 7d 6f 71 20    	vmovdqa 0x20(%r9),%ymm14
    1efb:	4c 8b 4d 98          	mov    -0x68(%rbp),%r9
    1eff:	4d 8b 49 08          	mov    0x8(%r9),%r9
    1f03:	c4 41 7e 6f 3c 09    	vmovdqu (%r9,%rcx,1),%ymm15
    1f09:	c4 41 05 64 e6       	vpcmpgtb %ymm14,%ymm15,%ymm12
    1f0e:	c4 41 7d db ec       	vpand  %ymm12,%ymm0,%ymm13
    1f13:	c4 41 0d 74 e7       	vpcmpeqb %ymm15,%ymm14,%ymm12
    1f18:	c4 41 3d eb c5       	vpor   %ymm13,%ymm8,%ymm8
    1f1d:	c4 c1 7d db c4       	vpand  %ymm12,%ymm0,%ymm0
    1f22:	76 6e                	jbe    1f92 <_Z37four_columns_c_cmp_with_literal_nP_nSPmmPPhjmmS1_jmmS1_jmmS1_jmm+0x3b2>
    1f24:	c4 e2 7d 17 c0       	vptest %ymm0,%ymm0
    1f29:	74 67                	je     1f92 <_Z37four_columns_c_cmp_with_literal_nP_nSPmmPPhjmmS1_jmmS1_jmmS1_jmm+0x3b2>
    1f2b:	4c 8b 4d a8          	mov    -0x58(%rbp),%r9
    1f2f:	49 8d 0c 12          	lea    (%r10,%rdx,1),%rcx
    1f33:	49 83 fc 03          	cmp    $0x3,%r12
    1f37:	c4 41 7d 6f 71 40    	vmovdqa 0x40(%r9),%ymm14
    1f3d:	4c 8b 4d 98          	mov    -0x68(%rbp),%r9
    1f41:	4d 8b 49 10          	mov    0x10(%r9),%r9
    1f45:	c4 41 7e 6f 3c 09    	vmovdqu (%r9,%rcx,1),%ymm15
    1f4b:	c4 41 05 64 e6       	vpcmpgtb %ymm14,%ymm15,%ymm12
    1f50:	c4 41 7d db ec       	vpand  %ymm12,%ymm0,%ymm13
    1f55:	c4 41 0d 74 e7       	vpcmpeqb %ymm15,%ymm14,%ymm12
    1f5a:	c4 41 3d eb c5       	vpor   %ymm13,%ymm8,%ymm8
    1f5f:	c4 41 7d db e4       	vpand  %ymm12,%ymm0,%ymm12
    1f64:	76 2c                	jbe    1f92 <_Z37four_columns_c_cmp_with_literal_nP_nSPmmPPhjmmS1_jmmS1_jmmS1_jmm+0x3b2>
    1f66:	c4 42 7d 17 e4       	vptest %ymm12,%ymm12
    1f6b:	74 25                	je     1f92 <_Z37four_columns_c_cmp_with_literal_nP_nSPmmPPhjmmS1_jmmS1_jmmS1_jmm+0x3b2>
    1f6d:	4c 8b 4d 98          	mov    -0x68(%rbp),%r9
    1f71:	49 8d 0c 12          	lea    (%r10,%rdx,1),%rcx
    1f75:	4d 8b 49 18          	mov    0x18(%r9),%r9
    1f79:	c4 c1 7e 6f 04 09    	vmovdqu (%r9,%rcx,1),%ymm0
    1f7f:	48 8b 4d a8          	mov    -0x58(%rbp),%rcx
    1f83:	c5 7d 64 69 60       	vpcmpgtb 0x60(%rcx),%ymm0,%ymm13
    1f88:	c4 41 1d db e5       	vpand  %ymm13,%ymm12,%ymm12
    1f8d:	c4 41 3d eb c4       	vpor   %ymm12,%ymm8,%ymm8
    1f92:	48 83 ff 01          	cmp    $0x1,%rdi
    1f96:	0f 86 b1 00 00 00    	jbe    204d <_Z37four_columns_c_cmp_with_literal_nP_nSPmmPPhjmmS1_jmmS1_jmmS1_jmm+0x46d>
    1f9c:	c4 e2 7d 17 ed       	vptest %ymm5,%ymm5
    1fa1:	0f 84 a6 00 00 00    	je     204d <_Z37four_columns_c_cmp_with_literal_nP_nSPmmPPhjmmS1_jmmS1_jmmS1_jmm+0x46d>
    1fa7:	4c 8b 4d a0          	mov    -0x60(%rbp),%r9
    1fab:	49 8d 0c 12          	lea    (%r10,%rdx,1),%rcx
    1faf:	48 83 ff 02          	cmp    $0x2,%rdi
    1fb3:	c4 41 7d 6f 69 20    	vmovdqa 0x20(%r9),%ymm13
    1fb9:	4c 8b 4b 10          	mov    0x10(%rbx),%r9
    1fbd:	4d 8b 49 08          	mov    0x8(%r9),%r9
    1fc1:	c4 41 7e 6f 34 09    	vmovdqu (%r9,%rcx,1),%ymm14
    1fc7:	c4 c1 15 64 c6       	vpcmpgtb %ymm14,%ymm13,%ymm0
    1fcc:	c5 55 db e0          	vpand  %ymm0,%ymm5,%ymm12
    1fd0:	c4 41 15 74 fe       	vpcmpeqb %ymm14,%ymm13,%ymm15
    1fd5:	c4 c1 4d eb f4       	vpor   %ymm12,%ymm6,%ymm6
    1fda:	c4 41 55 db f7       	vpand  %ymm15,%ymm5,%ymm14
    1fdf:	76 6c                	jbe    204d <_Z37four_columns_c_cmp_with_literal_nP_nSPmmPPhjmmS1_jmmS1_jmmS1_jmm+0x46d>
    1fe1:	c4 42 7d 17 f6       	vptest %ymm14,%ymm14
    1fe6:	74 65                	je     204d <_Z37four_columns_c_cmp_with_literal_nP_nSPmmPPhjmmS1_jmmS1_jmmS1_jmm+0x46d>
    1fe8:	4c 8b 4d a0          	mov    -0x60(%rbp),%r9
    1fec:	49 8d 0c 12          	lea    (%r10,%rdx,1),%rcx
    1ff0:	48 83 ff 03          	cmp    $0x3,%rdi
    1ff4:	c4 41 7d 6f 61 40    	vmovdqa 0x40(%r9),%ymm12
    1ffa:	4c 8b 4b 10          	mov    0x10(%rbx),%r9
    1ffe:	4d 8b 49 10          	mov    0x10(%r9),%r9
    2002:	c4 41 7e 6f 2c 09    	vmovdqu (%r9,%rcx,1),%ymm13
    2008:	c4 c1 1d 64 c5       	vpcmpgtb %ymm13,%ymm12,%ymm0
    200d:	c5 8d db e8          	vpand  %ymm0,%ymm14,%ymm5
    2011:	c4 41 1d 74 fd       	vpcmpeqb %ymm13,%ymm12,%ymm15
    2016:	c5 cd eb f5          	vpor   %ymm5,%ymm6,%ymm6
    201a:	c4 c1 0d db ef       	vpand  %ymm15,%ymm14,%ymm5
    201f:	76 2c                	jbe    204d <_Z37four_columns_c_cmp_with_literal_nP_nSPmmPPhjmmS1_jmmS1_jmmS1_jmm+0x46d>
    2021:	c4 e2 7d 17 ed       	vptest %ymm5,%ymm5
    2026:	74 25                	je     204d <_Z37four_columns_c_cmp_with_literal_nP_nSPmmPPhjmmS1_jmmS1_jmmS1_jmm+0x46d>
    2028:	4c 8b 4d a0          	mov    -0x60(%rbp),%r9
    202c:	49 8d 0c 12          	lea    (%r10,%rdx,1),%rcx
    2030:	c4 c1 7d 6f 41 60    	vmovdqa 0x60(%r9),%ymm0
    2036:	4c 8b 4b 10          	mov    0x10(%rbx),%r9
    203a:	4d 8b 49 18          	mov    0x18(%r9),%r9
    203e:	c4 41 7d 64 24 09    	vpcmpgtb (%r9,%rcx,1),%ymm0,%ymm12
    2044:	c4 c1 55 db ec       	vpand  %ymm12,%ymm5,%ymm5
    2049:	c5 cd eb f5          	vpor   %ymm5,%ymm6,%ymm6
    204d:	49 83 f8 01          	cmp    $0x1,%r8
    2051:	0f 86 ad 00 00 00    	jbe    2104 <_Z37four_columns_c_cmp_with_literal_nP_nSPmmPPhjmmS1_jmmS1_jmmS1_jmm+0x524>
    2057:	c4 e2 7d 17 db       	vptest %ymm3,%ymm3
    205c:	0f 84 a2 00 00 00    	je     2104 <_Z37four_columns_c_cmp_with_literal_nP_nSPmmPPhjmmS1_jmmS1_jmmS1_jmm+0x524>
    2062:	4c 8b 4d b0          	mov    -0x50(%rbp),%r9
    2066:	49 8d 0c 12          	lea    (%r10,%rdx,1),%rcx
    206a:	49 83 f8 02          	cmp    $0x2,%r8
    206e:	c4 41 7d 6f 61 20    	vmovdqa 0x20(%r9),%ymm12
    2074:	4c 8b 4b 30          	mov    0x30(%rbx),%r9
    2078:	4d 8b 49 08          	mov    0x8(%r9),%r9
    207c:	c4 41 7e 6f 2c 09    	vmovdqu (%r9,%rcx,1),%ymm13
    2082:	c4 c1 15 64 c4       	vpcmpgtb %ymm12,%ymm13,%ymm0
    2087:	c5 e5 db e8          	vpand  %ymm0,%ymm3,%ymm5
    208b:	c4 41 1d 74 f5       	vpcmpeqb %ymm13,%ymm12,%ymm14
    2090:	c5 dd eb e5          	vpor   %ymm5,%ymm4,%ymm4
    2094:	c4 41 65 db ee       	vpand  %ymm14,%ymm3,%ymm13
    2099:	76 69                	jbe    2104 <_Z37four_columns_c_cmp_with_literal_nP_nSPmmPPhjmmS1_jmmS1_jmmS1_jmm+0x524>
    209b:	c4 42 7d 17 ed       	vptest %ymm13,%ymm13
    20a0:	74 62                	je     2104 <_Z37four_columns_c_cmp_with_literal_nP_nSPmmPPhjmmS1_jmmS1_jmmS1_jmm+0x524>
    20a2:	4c 8b 4d b0          	mov    -0x50(%rbp),%r9
    20a6:	49 8d 0c 12          	lea    (%r10,%rdx,1),%rcx
    20aa:	49 83 f8 03          	cmp    $0x3,%r8
    20ae:	c4 c1 7d 6f 69 40    	vmovdqa 0x40(%r9),%ymm5
    20b4:	4c 8b 4b 30          	mov    0x30(%rbx),%r9
    20b8:	4d 8b 49 10          	mov    0x10(%r9),%r9
    20bc:	c4 41 7e 6f 24 09    	vmovdqu (%r9,%rcx,1),%ymm12
    20c2:	c5 9d 64 c5          	vpcmpgtb %ymm5,%ymm12,%ymm0
    20c6:	c5 95 db d8          	vpand  %ymm0,%ymm13,%ymm3
    20ca:	c4 41 55 74 f4       	vpcmpeqb %ymm12,%ymm5,%ymm14
    20cf:	c5 dd eb e3          	vpor   %ymm3,%ymm4,%ymm4
    20d3:	c4 c1 15 db de       	vpand  %ymm14,%ymm13,%ymm3
    20d8:	76 2a                	jbe    2104 <_Z37four_columns_c_cmp_with_literal_nP_nSPmmPPhjmmS1_jmmS1_jmmS1_jmm+0x524>
    20da:	c4 e2 7d 17 db       	vptest %ymm3,%ymm3
    20df:	74 23                	je     2104 <_Z37four_columns_c_cmp_with_literal_nP_nSPmmPPhjmmS1_jmmS1_jmmS1_jmm+0x524>
    20e1:	4c 8b 4b 30          	mov    0x30(%rbx),%r9
    20e5:	49 8d 0c 12          	lea    (%r10,%rdx,1),%rcx
    20e9:	4d 8b 49 18          	mov    0x18(%r9),%r9
    20ed:	c4 c1 7e 6f 04 09    	vmovdqu (%r9,%rcx,1),%ymm0
    20f3:	48 8b 4d b0          	mov    -0x50(%rbp),%rcx
    20f7:	c5 fd 64 69 60       	vpcmpgtb 0x60(%rcx),%ymm0,%ymm5
    20fc:	c5 e5 db dd          	vpand  %ymm5,%ymm3,%ymm3
    2100:	c5 dd eb e3          	vpor   %ymm3,%ymm4,%ymm4
    2104:	48 83 fe 01          	cmp    $0x1,%rsi
    2108:	0f 86 b6 00 00 00    	jbe    21c4 <_Z37four_columns_c_cmp_with_literal_nP_nSPmmPPhjmmS1_jmmS1_jmmS1_jmm+0x5e4>
    210e:	c4 e2 7d 17 c9       	vptest %ymm1,%ymm1
    2113:	0f 84 ab 00 00 00    	je     21c4 <_Z37four_columns_c_cmp_with_literal_nP_nSPmmPPhjmmS1_jmmS1_jmmS1_jmm+0x5e4>
    2119:	4c 8b 8d 70 ff ff ff 	mov    -0x90(%rbp),%r9
    2120:	49 8d 0c 12          	lea    (%r10,%rdx,1),%rcx
    2124:	48 83 fe 02          	cmp    $0x2,%rsi
    2128:	c4 c1 7d 6f 69 20    	vmovdqa 0x20(%r9),%ymm5
    212e:	4c 8b 4b 50          	mov    0x50(%rbx),%r9
    2132:	4d 8b 49 08          	mov    0x8(%r9),%r9
    2136:	c4 41 7e 6f 24 09    	vmovdqu (%r9,%rcx,1),%ymm12
    213c:	c4 c1 55 64 c4       	vpcmpgtb %ymm12,%ymm5,%ymm0
    2141:	c5 f5 db d8          	vpand  %ymm0,%ymm1,%ymm3
    2145:	c4 41 55 74 ec       	vpcmpeqb %ymm12,%ymm5,%ymm13
    214a:	c5 ed eb d3          	vpor   %ymm3,%ymm2,%ymm2
    214e:	c4 41 75 db e5       	vpand  %ymm13,%ymm1,%ymm12
    2153:	76 6f                	jbe    21c4 <_Z37four_columns_c_cmp_with_literal_nP_nSPmmPPhjmmS1_jmmS1_jmmS1_jmm+0x5e4>
    2155:	c4 42 7d 17 e4       	vptest %ymm12,%ymm12
    215a:	74 68                	je     21c4 <_Z37four_columns_c_cmp_with_literal_nP_nSPmmPPhjmmS1_jmmS1_jmmS1_jmm+0x5e4>
    215c:	4c 8b 8d 70 ff ff ff 	mov    -0x90(%rbp),%r9
    2163:	49 8d 0c 12          	lea    (%r10,%rdx,1),%rcx
    2167:	48 83 fe 03          	cmp    $0x3,%rsi
    216b:	c4 c1 7d 6f 59 40    	vmovdqa 0x40(%r9),%ymm3
    2171:	4c 8b 4b 50          	mov    0x50(%rbx),%r9
    2175:	4d 8b 49 10          	mov    0x10(%r9),%r9
    2179:	c4 c1 7e 6f 2c 09    	vmovdqu (%r9,%rcx,1),%ymm5
    217f:	c5 e5 64 c5          	vpcmpgtb %ymm5,%ymm3,%ymm0
    2183:	c5 9d db c8          	vpand  %ymm0,%ymm12,%ymm1
    2187:	c5 65 74 ed          	vpcmpeqb %ymm5,%ymm3,%ymm13
    218b:	c5 ed eb d1          	vpor   %ymm1,%ymm2,%ymm2
    218f:	c4 c1 1d db cd       	vpand  %ymm13,%ymm12,%ymm1
    2194:	76 2e                	jbe    21c4 <_Z37four_columns_c_cmp_with_literal_nP_nSPmmPPhjmmS1_jmmS1_jmmS1_jmm+0x5e4>
    2196:	c4 e2 7d 17 c9       	vptest %ymm1,%ymm1
    219b:	74 27                	je     21c4 <_Z37four_columns_c_cmp_with_literal_nP_nSPmmPPhjmmS1_jmmS1_jmmS1_jmm+0x5e4>
    219d:	4c 8b 8d 70 ff ff ff 	mov    -0x90(%rbp),%r9
    21a4:	49 8d 0c 12          	lea    (%r10,%rdx,1),%rcx
    21a8:	c4 c1 7d 6f 41 60    	vmovdqa 0x60(%r9),%ymm0
    21ae:	4c 8b 4b 50          	mov    0x50(%rbx),%r9
    21b2:	4d 8b 49 18          	mov    0x18(%r9),%r9
    21b6:	c4 c1 7d 64 1c 09    	vpcmpgtb (%r9,%rcx,1),%ymm0,%ymm3
    21bc:	c5 f5 db cb          	vpand  %ymm3,%ymm1,%ymm1
    21c0:	c5 ed eb d1          	vpor   %ymm1,%ymm2,%ymm2
    21c4:	c5 bd db c6          	vpand  %ymm6,%ymm8,%ymm0
    21c8:	89 d1                	mov    %edx,%ecx
    21ca:	c5 dd db ca          	vpand  %ymm2,%ymm4,%ymm1
    21ce:	c5 fd eb d1          	vpor   %ymm1,%ymm0,%ymm2
    21d2:	48 83 c2 20          	add    $0x20,%rdx
    21d6:	c5 7d d7 ca          	vpmovmskb %ymm2,%r9d
    21da:	49 d3 e1             	shl    %cl,%r9
    21dd:	49 0b c1             	or     %r9,%rax
    21e0:	48 83 fa 40          	cmp    $0x40,%rdx
    21e4:	0f 82 b0 fc ff ff    	jb     1e9a <_Z37four_columns_c_cmp_with_literal_nP_nSPmmPPhjmmS1_jmmS1_jmmS1_jmm+0x2ba>
    21ea:	48 8b 4d c8          	mov    -0x38(%rbp),%rcx
    21ee:	49 83 c2 40          	add    $0x40,%r10
    21f2:	48 8b 7d c0          	mov    -0x40(%rbp),%rdi
    21f6:	49 83 c5 40          	add    $0x40,%r13
    21fa:	4c 8b 4d b8          	mov    -0x48(%rbp),%r9
    21fe:	49 83 c6 40          	add    $0x40,%r14
    2202:	48 89 04 cf          	mov    %rax,(%rdi,%rcx,8)
    2206:	49 83 c7 40          	add    $0x40,%r15
    220a:	49 83 c3 40          	add    $0x40,%r11
    220e:	48 ff c1             	inc    %rcx
    2211:	4d 3b d1             	cmp    %r9,%r10
    2214:	0f 82 6c fc ff ff    	jb     1e86 <_Z37four_columns_c_cmp_with_literal_nP_nSPmmPPhjmmS1_jmmS1_jmmS1_jmm+0x2a6>
    221a:	48 8b 85 70 ff ff ff 	mov    -0x90(%rbp),%rax
    2221:	48 89 c2             	mov    %rax,%rdx
    2224:	48 8b 45 90          	mov    -0x70(%rbp),%rax
    2228:	48 83 c0 1f          	add    $0x1f,%rax
    222c:	48 83 e0 e0          	and    $0xffffffffffffffe0,%rax
    2230:	48 03 e0             	add    %rax,%rsp
    2233:	48 8b 55 b0          	mov    -0x50(%rbp),%rdx
    2237:	48 8b 45 88          	mov    -0x78(%rbp),%rax
    223b:	48 83 c0 1f          	add    $0x1f,%rax
    223f:	48 83 e0 e0          	and    $0xffffffffffffffe0,%rax
    2243:	48 03 e0             	add    %rax,%rsp
    2246:	48 8b 55 a0          	mov    -0x60(%rbp),%rdx
    224a:	48 8b 45 80          	mov    -0x80(%rbp),%rax
    224e:	48 83 c0 1f          	add    $0x1f,%rax
    2252:	48 83 e0 e0          	and    $0xffffffffffffffe0,%rax
    2256:	48 03 e0             	add    %rax,%rsp
    2259:	48 8b 55 a8          	mov    -0x58(%rbp),%rdx
    225d:	48 8b 85 78 ff ff ff 	mov    -0x88(%rbp),%rax
    2264:	48 83 c0 1f          	add    $0x1f,%rax
    2268:	48 83 e0 e0          	and    $0xffffffffffffffe0,%rax
    226c:	48 03 e0             	add    %rax,%rsp
    226f:	48 8d 65 e0          	lea    -0x20(%rbp),%rsp
    2273:	41 5f                	pop    %r15
    2275:	41 5e                	pop    %r14
    2277:	41 5d                	pop    %r13
    2279:	41 5c                	pop    %r12
    227b:	5d                   	pop    %rbp
    227c:	48 89 dc             	mov    %rbx,%rsp
    227f:	5b                   	pop    %rbx
    2280:	c3                   	retq   
    2281:	0f 1f 84 00 00 00 00 	nopl   0x0(%rax,%rax,1)
    2288:	00 
    2289:	0f 1f 80 00 00 00 00 	nopl   0x0(%rax)

0000000000002290 <_Z36four_columns_c_cmp_with_literal_nP_SPmmPPhjmmS1_jmmS1_jmmS1_jmm>:
    2290:	53                   	push   %rbx
    2291:	48 89 e3             	mov    %rsp,%rbx
    2294:	48 83 e4 e0          	and    $0xffffffffffffffe0,%rsp
    2298:	55                   	push   %rbp
    2299:	55                   	push   %rbp
    229a:	48 8b 6b 08          	mov    0x8(%rbx),%rbp
    229e:	48 89 6c 24 08       	mov    %rbp,0x8(%rsp)
    22a3:	48 89 e5             	mov    %rsp,%rbp
    22a6:	41 54                	push   %r12
    22a8:	41 55                	push   %r13
    22aa:	41 56                	push   %r14
    22ac:	41 57                	push   %r15
    22ae:	48 83 ec 70          	sub    $0x70,%rsp
    22b2:	4d 89 c4             	mov    %r8,%r12
    22b5:	4c 89 e0             	mov    %r12,%rax
    22b8:	4d 89 cd             	mov    %r9,%r13
    22bb:	48 c1 e0 05          	shl    $0x5,%rax
    22bf:	49 89 f1             	mov    %rsi,%r9
    22c2:	48 89 55 98          	mov    %rdx,-0x68(%rbp)
    22c6:	48 89 85 78 ff ff ff 	mov    %rax,-0x88(%rbp)
    22cd:	48 83 c0 1f          	add    $0x1f,%rax
    22d1:	48 83 e0 e0          	and    $0xffffffffffffffe0,%rax
    22d5:	48 2b e0             	sub    %rax,%rsp
    22d8:	48 89 e0             	mov    %rsp,%rax
    22db:	48 89 45 a8          	mov    %rax,-0x58(%rbp)
    22df:	41 89 ce             	mov    %ecx,%r14d
    22e2:	44 89 e9             	mov    %r13d,%ecx
    22e5:	48 8b 43 20          	mov    0x20(%rbx),%rax
    22e9:	49 d3 e6             	shl    %cl,%r14
    22ec:	48 c1 e0 05          	shl    $0x5,%rax
    22f0:	48 89 45 80          	mov    %rax,-0x80(%rbp)
    22f4:	48 83 c0 1f          	add    $0x1f,%rax
    22f8:	48 83 e0 e0          	and    $0xffffffffffffffe0,%rax
    22fc:	48 2b e0             	sub    %rax,%rsp
    22ff:	48 89 e0             	mov    %rsp,%rax
    2302:	48 89 45 a0          	mov    %rax,-0x60(%rbp)
    2306:	4c 8b 43 40          	mov    0x40(%rbx),%r8
    230a:	4c 89 c0             	mov    %r8,%rax
    230d:	8b 4b 28             	mov    0x28(%rbx),%ecx
    2310:	44 8b 7b 18          	mov    0x18(%rbx),%r15d
    2314:	49 d3 e7             	shl    %cl,%r15
    2317:	48 c1 e0 05          	shl    $0x5,%rax
    231b:	48 89 45 88          	mov    %rax,-0x78(%rbp)
    231f:	48 83 c0 1f          	add    $0x1f,%rax
    2323:	48 83 e0 e0          	and    $0xffffffffffffffe0,%rax
    2327:	48 2b e0             	sub    %rax,%rsp
    232a:	48 89 e0             	mov    %rsp,%rax
    232d:	48 89 45 b0          	mov    %rax,-0x50(%rbp)
    2331:	48 8b 73 60          	mov    0x60(%rbx),%rsi
    2335:	48 89 f0             	mov    %rsi,%rax
    2338:	8b 4b 48             	mov    0x48(%rbx),%ecx
    233b:	44 8b 6b 38          	mov    0x38(%rbx),%r13d
    233f:	49 d3 e5             	shl    %cl,%r13
    2342:	48 c1 e0 05          	shl    $0x5,%rax
    2346:	48 89 45 90          	mov    %rax,-0x70(%rbp)
    234a:	48 83 c0 1f          	add    $0x1f,%rax
    234e:	48 83 e0 e0          	and    $0xffffffffffffffe0,%rax
    2352:	48 2b e0             	sub    %rax,%rsp
    2355:	48 89 e0             	mov    %rsp,%rax
    2358:	8b 4b 68             	mov    0x68(%rbx),%ecx
    235b:	44 8b 53 58          	mov    0x58(%rbx),%r10d
    235f:	49 d3 e2             	shl    %cl,%r10
    2362:	33 c9                	xor    %ecx,%ecx
    2364:	33 d2                	xor    %edx,%edx
    2366:	4d 85 e4             	test   %r12,%r12
    2369:	76 5d                	jbe    23c8 <_Z36four_columns_c_cmp_with_literal_nP_SPmmPPhjmmS1_jmmS1_jmmS1_jmm+0x138>
    236b:	4c 89 4d b8          	mov    %r9,-0x48(%rbp)
    236f:	4e 8d 1c e5 f8 ff ff 	lea    -0x8(,%r12,8),%r11
    2376:	ff 
    2377:	48 8b 75 a8          	mov    -0x58(%rbp),%rsi
    237b:	49 89 c8             	mov    %rcx,%r8
    237e:	44 89 d9             	mov    %r11d,%ecx
    2381:	45 89 f1             	mov    %r14d,%r9d
    2384:	41 d3 e9             	shr    %cl,%r9d
    2387:	49 ff c0             	inc    %r8
    238a:	41 83 f1 80          	xor    $0xffffff80,%r9d
    238e:	49 83 c3 f8          	add    $0xfffffffffffffff8,%r11
    2392:	45 0f b6 c9          	movzbl %r9b,%r9d
    2396:	c4 c1 79 6e c1       	vmovd  %r9d,%xmm0
    239b:	c5 f9 60 c8          	vpunpcklbw %xmm0,%xmm0,%xmm1
    239f:	c5 f1 60 d1          	vpunpcklbw %xmm1,%xmm1,%xmm2
    23a3:	c5 f9 70 da 00       	vpshufd $0x0,%xmm2,%xmm3
    23a8:	c4 e3 65 18 e3 01    	vinsertf128 $0x1,%xmm3,%ymm3,%ymm4
    23ae:	c5 fc 29 24 32       	vmovaps %ymm4,(%rdx,%rsi,1)
    23b3:	48 83 c2 20          	add    $0x20,%rdx
    23b7:	4d 3b c4             	cmp    %r12,%r8
    23ba:	72 c2                	jb     237e <_Z36four_columns_c_cmp_with_literal_nP_SPmmPPhjmmS1_jmmS1_jmmS1_jmm+0xee>
    23bc:	48 8b 73 60          	mov    0x60(%rbx),%rsi
    23c0:	4c 8b 43 40          	mov    0x40(%rbx),%r8
    23c4:	4c 8b 4d b8          	mov    -0x48(%rbp),%r9
    23c8:	33 d2                	xor    %edx,%edx
    23ca:	45 33 f6             	xor    %r14d,%r14d
    23cd:	48 83 7b 20 00       	cmpq   $0x0,0x20(%rbx)
    23d2:	76 68                	jbe    243c <_Z36four_columns_c_cmp_with_literal_nP_SPmmPPhjmmS1_jmmS1_jmmS1_jmm+0x1ac>
    23d4:	48 8b 4b 20          	mov    0x20(%rbx),%rcx
    23d8:	49 89 c8             	mov    %rcx,%r8
    23db:	4c 89 a5 70 ff ff ff 	mov    %r12,-0x90(%rbp)
    23e2:	48 8b 75 a0          	mov    -0x60(%rbp),%rsi
    23e6:	4c 8d 1c cd f8 ff ff 	lea    -0x8(,%rcx,8),%r11
    23ed:	ff 
    23ee:	44 89 d9             	mov    %r11d,%ecx
    23f1:	45 89 fc             	mov    %r15d,%r12d
    23f4:	41 d3 ec             	shr    %cl,%r12d
    23f7:	48 ff c2             	inc    %rdx
    23fa:	41 83 f4 80          	xor    $0xffffff80,%r12d
    23fe:	49 83 c3 f8          	add    $0xfffffffffffffff8,%r11
    2402:	45 0f b6 e4          	movzbl %r12b,%r12d
    2406:	c4 c1 79 6e c4       	vmovd  %r12d,%xmm0
    240b:	c5 f9 60 c8          	vpunpcklbw %xmm0,%xmm0,%xmm1
    240f:	c5 f1 60 d1          	vpunpcklbw %xmm1,%xmm1,%xmm2
    2413:	c5 f9 70 da 00       	vpshufd $0x0,%xmm2,%xmm3
    2418:	c4 e3 65 18 e3 01    	vinsertf128 $0x1,%xmm3,%ymm3,%ymm4
    241e:	c4 c1 7c 29 24 36    	vmovaps %ymm4,(%r14,%rsi,1)
    2424:	49 83 c6 20          	add    $0x20,%r14
    2428:	49 3b d0             	cmp    %r8,%rdx
    242b:	72 c1                	jb     23ee <_Z36four_columns_c_cmp_with_literal_nP_SPmmPPhjmmS1_jmmS1_jmmS1_jmm+0x15e>
    242d:	48 8b 73 60          	mov    0x60(%rbx),%rsi
    2431:	4c 8b 43 40          	mov    0x40(%rbx),%r8
    2435:	4c 8b a5 70 ff ff ff 	mov    -0x90(%rbp),%r12
    243c:	45 33 f6             	xor    %r14d,%r14d
    243f:	45 33 ff             	xor    %r15d,%r15d
    2442:	4d 85 c0             	test   %r8,%r8
    2445:	76 4b                	jbe    2492 <_Z36four_columns_c_cmp_with_literal_nP_SPmmPPhjmmS1_jmmS1_jmmS1_jmm+0x202>
    2447:	48 8b 75 b0          	mov    -0x50(%rbp),%rsi
    244b:	4e 8d 1c c5 f8 ff ff 	lea    -0x8(,%r8,8),%r11
    2452:	ff 
    2453:	44 89 d9             	mov    %r11d,%ecx
    2456:	44 89 ea             	mov    %r13d,%edx
    2459:	d3 ea                	shr    %cl,%edx
    245b:	49 ff c6             	inc    %r14
    245e:	83 f2 80             	xor    $0xffffff80,%edx
    2461:	49 83 c3 f8          	add    $0xfffffffffffffff8,%r11
    2465:	0f b6 d2             	movzbl %dl,%edx
    2468:	c5 f9 6e c2          	vmovd  %edx,%xmm0
    246c:	c5 f9 60 c8          	vpunpcklbw %xmm0,%xmm0,%xmm1
    2470:	c5 f1 60 d1          	vpunpcklbw %xmm1,%xmm1,%xmm2
    2474:	c5 f9 70 da 00       	vpshufd $0x0,%xmm2,%xmm3
    2479:	c4 e3 65 18 e3 01    	vinsertf128 $0x1,%xmm3,%ymm3,%ymm4
    247f:	c4 c1 7c 29 24 37    	vmovaps %ymm4,(%r15,%rsi,1)
    2485:	49 83 c7 20          	add    $0x20,%r15
    2489:	4d 3b f0             	cmp    %r8,%r14
    248c:	72 c5                	jb     2453 <_Z36four_columns_c_cmp_with_literal_nP_SPmmPPhjmmS1_jmmS1_jmmS1_jmm+0x1c3>
    248e:	48 8b 73 60          	mov    0x60(%rbx),%rsi
    2492:	45 33 ed             	xor    %r13d,%r13d
    2495:	45 33 db             	xor    %r11d,%r11d
    2498:	48 85 f6             	test   %rsi,%rsi
    249b:	76 47                	jbe    24e4 <_Z36four_columns_c_cmp_with_literal_nP_SPmmPPhjmmS1_jmmS1_jmmS1_jmm+0x254>
    249d:	4c 8d 34 f5 f8 ff ff 	lea    -0x8(,%rsi,8),%r14
    24a4:	ff 
    24a5:	44 89 f1             	mov    %r14d,%ecx
    24a8:	45 89 d7             	mov    %r10d,%r15d
    24ab:	41 d3 ef             	shr    %cl,%r15d
    24ae:	49 ff c5             	inc    %r13
    24b1:	41 83 f7 80          	xor    $0xffffff80,%r15d
    24b5:	49 83 c6 f8          	add    $0xfffffffffffffff8,%r14
    24b9:	45 0f b6 ff          	movzbl %r15b,%r15d
    24bd:	c4 c1 79 6e c7       	vmovd  %r15d,%xmm0
    24c2:	c5 f9 60 c8          	vpunpcklbw %xmm0,%xmm0,%xmm1
    24c6:	c5 f1 60 d1          	vpunpcklbw %xmm1,%xmm1,%xmm2
    24ca:	c5 f9 70 da 00       	vpshufd $0x0,%xmm2,%xmm3
    24cf:	c4 e3 65 18 e3 01    	vinsertf128 $0x1,%xmm3,%ymm3,%ymm4
    24d5:	c4 c1 7c 29 24 03    	vmovaps %ymm4,(%r11,%rax,1)
    24db:	49 83 c3 20          	add    $0x20,%r11
    24df:	4c 3b ee             	cmp    %rsi,%r13
    24e2:	72 c1                	jb     24a5 <_Z36four_columns_c_cmp_with_literal_nP_SPmmPPhjmmS1_jmmS1_jmmS1_jmm+0x215>
    24e4:	45 33 d2             	xor    %r10d,%r10d
    24e7:	33 c9                	xor    %ecx,%ecx
    24e9:	4d 85 c9             	test   %r9,%r9
    24ec:	0f 86 e0 03 00 00    	jbe    28d2 <_Z36four_columns_c_cmp_with_literal_nP_SPmmPPhjmmS1_jmmS1_jmmS1_jmm+0x642>
    24f2:	4c 8b 6d a8          	mov    -0x58(%rbp),%r13
    24f6:	4c 8b 5d b0          	mov    -0x50(%rbp),%r11
    24fa:	4c 8b 75 a0          	mov    -0x60(%rbp),%r14
    24fe:	c4 41 7d 6f 55 00    	vmovdqa 0x0(%r13),%ymm10
    2504:	c4 41 7d 6f 1b       	vmovdqa (%r11),%ymm11
    2509:	c4 41 7d 6f 0e       	vmovdqa (%r14),%ymm9
    250e:	c5 fd 6f 38          	vmovdqa (%rax),%ymm7
    2512:	48 8b 53 10          	mov    0x10(%rbx),%rdx
    2516:	4c 8b 7b 30          	mov    0x30(%rbx),%r15
    251a:	4c 8b 5b 50          	mov    0x50(%rbx),%r11
    251e:	4c 8b 6d 98          	mov    -0x68(%rbp),%r13
    2522:	4c 8b 32             	mov    (%rdx),%r14
    2525:	4d 8b 3f             	mov    (%r15),%r15
    2528:	4d 8b 6d 00          	mov    0x0(%r13),%r13
    252c:	4d 8b 1b             	mov    (%r11),%r11
    252f:	48 89 85 70 ff ff ff 	mov    %rax,-0x90(%rbp)
    2536:	33 c0                	xor    %eax,%eax
    2538:	48 89 7d c0          	mov    %rdi,-0x40(%rbp)
    253c:	33 d2                	xor    %edx,%edx
    253e:	48 89 4d c8          	mov    %rcx,-0x38(%rbp)
    2542:	4c 89 4d b8          	mov    %r9,-0x48(%rbp)
    2546:	48 8b 7b 20          	mov    0x20(%rbx),%rdi
    254a:	c4 a1 7e 6f 04 2a    	vmovdqu (%rdx,%r13,1),%ymm0
    2550:	49 83 fc 01          	cmp    $0x1,%r12
    2554:	c4 a1 7e 6f 24 32    	vmovdqu (%rdx,%r14,1),%ymm4
    255a:	c4 a1 7e 6f 14 3a    	vmovdqu (%rdx,%r15,1),%ymm2
    2560:	c4 a1 7e 6f 0c 1a    	vmovdqu (%rdx,%r11,1),%ymm1
    2566:	c4 41 7d 64 c2       	vpcmpgtb %ymm10,%ymm0,%ymm8
    256b:	c5 ad 74 c0          	vpcmpeqb %ymm0,%ymm10,%ymm0
    256f:	c5 b5 64 f4          	vpcmpgtb %ymm4,%ymm9,%ymm6
    2573:	c5 b5 74 ec          	vpcmpeqb %ymm4,%ymm9,%ymm5
    2577:	c4 c1 6d 64 e3       	vpcmpgtb %ymm11,%ymm2,%ymm4
    257c:	c5 a5 74 da          	vpcmpeqb %ymm2,%ymm11,%ymm3
    2580:	c5 c5 64 d1          	vpcmpgtb %ymm1,%ymm7,%ymm2
    2584:	c5 c5 74 c9          	vpcmpeqb %ymm1,%ymm7,%ymm1
    2588:	0f 86 b4 00 00 00    	jbe    2642 <_Z36four_columns_c_cmp_with_literal_nP_SPmmPPhjmmS1_jmmS1_jmmS1_jmm+0x3b2>
    258e:	c4 e2 7d 17 c0       	vptest %ymm0,%ymm0
    2593:	0f 84 a9 00 00 00    	je     2642 <_Z36four_columns_c_cmp_with_literal_nP_SPmmPPhjmmS1_jmmS1_jmmS1_jmm+0x3b2>
    2599:	4c 8b 4d a8          	mov    -0x58(%rbp),%r9
    259d:	49 8d 0c 12          	lea    (%r10,%rdx,1),%rcx
    25a1:	49 83 fc 02          	cmp    $0x2,%r12
    25a5:	c4 41 7d 6f 71 20    	vmovdqa 0x20(%r9),%ymm14
    25ab:	4c 8b 4d 98          	mov    -0x68(%rbp),%r9
    25af:	4d 8b 49 08          	mov    0x8(%r9),%r9
    25b3:	c4 41 7e 6f 3c 09    	vmovdqu (%r9,%rcx,1),%ymm15
    25b9:	c4 41 05 64 e6       	vpcmpgtb %ymm14,%ymm15,%ymm12
    25be:	c4 41 7d db ec       	vpand  %ymm12,%ymm0,%ymm13
    25c3:	c4 41 0d 74 e7       	vpcmpeqb %ymm15,%ymm14,%ymm12
    25c8:	c4 41 3d eb c5       	vpor   %ymm13,%ymm8,%ymm8
    25cd:	c4 c1 7d db c4       	vpand  %ymm12,%ymm0,%ymm0
    25d2:	76 6e                	jbe    2642 <_Z36four_columns_c_cmp_with_literal_nP_SPmmPPhjmmS1_jmmS1_jmmS1_jmm+0x3b2>
    25d4:	c4 e2 7d 17 c0       	vptest %ymm0,%ymm0
    25d9:	74 67                	je     2642 <_Z36four_columns_c_cmp_with_literal_nP_SPmmPPhjmmS1_jmmS1_jmmS1_jmm+0x3b2>
    25db:	4c 8b 4d a8          	mov    -0x58(%rbp),%r9
    25df:	49 8d 0c 12          	lea    (%r10,%rdx,1),%rcx
    25e3:	49 83 fc 03          	cmp    $0x3,%r12
    25e7:	c4 41 7d 6f 71 40    	vmovdqa 0x40(%r9),%ymm14
    25ed:	4c 8b 4d 98          	mov    -0x68(%rbp),%r9
    25f1:	4d 8b 49 10          	mov    0x10(%r9),%r9
    25f5:	c4 41 7e 6f 3c 09    	vmovdqu (%r9,%rcx,1),%ymm15
    25fb:	c4 41 05 64 e6       	vpcmpgtb %ymm14,%ymm15,%ymm12
    2600:	c4 41 7d db ec       	vpand  %ymm12,%ymm0,%ymm13
    2605:	c4 41 0d 74 e7       	vpcmpeqb %ymm15,%ymm14,%ymm12
    260a:	c4 41 3d eb c5       	vpor   %ymm13,%ymm8,%ymm8
    260f:	c4 41 7d db e4       	vpand  %ymm12,%ymm0,%ymm12
    2614:	76 2c                	jbe    2642 <_Z36four_columns_c_cmp_with_literal_nP_SPmmPPhjmmS1_jmmS1_jmmS1_jmm+0x3b2>
    2616:	c4 42 7d 17 e4       	vptest %ymm12,%ymm12
    261b:	74 25                	je     2642 <_Z36four_columns_c_cmp_with_literal_nP_SPmmPPhjmmS1_jmmS1_jmmS1_jmm+0x3b2>
    261d:	4c 8b 4d 98          	mov    -0x68(%rbp),%r9
    2621:	49 8d 0c 12          	lea    (%r10,%rdx,1),%rcx
    2625:	4d 8b 49 18          	mov    0x18(%r9),%r9
    2629:	c4 c1 7e 6f 04 09    	vmovdqu (%r9,%rcx,1),%ymm0
    262f:	48 8b 4d a8          	mov    -0x58(%rbp),%rcx
    2633:	c5 7d 64 69 60       	vpcmpgtb 0x60(%rcx),%ymm0,%ymm13
    2638:	c4 41 1d db e5       	vpand  %ymm13,%ymm12,%ymm12
    263d:	c4 41 3d eb c4       	vpor   %ymm12,%ymm8,%ymm8
    2642:	48 83 ff 01          	cmp    $0x1,%rdi
    2646:	0f 86 b1 00 00 00    	jbe    26fd <_Z36four_columns_c_cmp_with_literal_nP_SPmmPPhjmmS1_jmmS1_jmmS1_jmm+0x46d>
    264c:	c4 e2 7d 17 ed       	vptest %ymm5,%ymm5
    2651:	0f 84 a6 00 00 00    	je     26fd <_Z36four_columns_c_cmp_with_literal_nP_SPmmPPhjmmS1_jmmS1_jmmS1_jmm+0x46d>
    2657:	4c 8b 4d a0          	mov    -0x60(%rbp),%r9
    265b:	49 8d 0c 12          	lea    (%r10,%rdx,1),%rcx
    265f:	48 83 ff 02          	cmp    $0x2,%rdi
    2663:	c4 41 7d 6f 69 20    	vmovdqa 0x20(%r9),%ymm13
    2669:	4c 8b 4b 10          	mov    0x10(%rbx),%r9
    266d:	4d 8b 49 08          	mov    0x8(%r9),%r9
    2671:	c4 41 7e 6f 34 09    	vmovdqu (%r9,%rcx,1),%ymm14
    2677:	c4 c1 15 64 c6       	vpcmpgtb %ymm14,%ymm13,%ymm0
    267c:	c5 55 db e0          	vpand  %ymm0,%ymm5,%ymm12
    2680:	c4 41 15 74 fe       	vpcmpeqb %ymm14,%ymm13,%ymm15
    2685:	c4 c1 4d eb f4       	vpor   %ymm12,%ymm6,%ymm6
    268a:	c4 41 55 db f7       	vpand  %ymm15,%ymm5,%ymm14
    268f:	76 6c                	jbe    26fd <_Z36four_columns_c_cmp_with_literal_nP_SPmmPPhjmmS1_jmmS1_jmmS1_jmm+0x46d>
    2691:	c4 42 7d 17 f6       	vptest %ymm14,%ymm14
    2696:	74 65                	je     26fd <_Z36four_columns_c_cmp_with_literal_nP_SPmmPPhjmmS1_jmmS1_jmmS1_jmm+0x46d>
    2698:	4c 8b 4d a0          	mov    -0x60(%rbp),%r9
    269c:	49 8d 0c 12          	lea    (%r10,%rdx,1),%rcx
    26a0:	48 83 ff 03          	cmp    $0x3,%rdi
    26a4:	c4 41 7d 6f 61 40    	vmovdqa 0x40(%r9),%ymm12
    26aa:	4c 8b 4b 10          	mov    0x10(%rbx),%r9
    26ae:	4d 8b 49 10          	mov    0x10(%r9),%r9
    26b2:	c4 41 7e 6f 2c 09    	vmovdqu (%r9,%rcx,1),%ymm13
    26b8:	c4 c1 1d 64 c5       	vpcmpgtb %ymm13,%ymm12,%ymm0
    26bd:	c5 8d db e8          	vpand  %ymm0,%ymm14,%ymm5
    26c1:	c4 41 1d 74 fd       	vpcmpeqb %ymm13,%ymm12,%ymm15
    26c6:	c5 cd eb f5          	vpor   %ymm5,%ymm6,%ymm6
    26ca:	c4 c1 0d db ef       	vpand  %ymm15,%ymm14,%ymm5
    26cf:	76 2c                	jbe    26fd <_Z36four_columns_c_cmp_with_literal_nP_SPmmPPhjmmS1_jmmS1_jmmS1_jmm+0x46d>
    26d1:	c4 e2 7d 17 ed       	vptest %ymm5,%ymm5
    26d6:	74 25                	je     26fd <_Z36four_columns_c_cmp_with_literal_nP_SPmmPPhjmmS1_jmmS1_jmmS1_jmm+0x46d>
    26d8:	4c 8b 4d a0          	mov    -0x60(%rbp),%r9
    26dc:	49 8d 0c 12          	lea    (%r10,%rdx,1),%rcx
    26e0:	c4 c1 7d 6f 41 60    	vmovdqa 0x60(%r9),%ymm0
    26e6:	4c 8b 4b 10          	mov    0x10(%rbx),%r9
    26ea:	4d 8b 49 18          	mov    0x18(%r9),%r9
    26ee:	c4 41 7d 64 24 09    	vpcmpgtb (%r9,%rcx,1),%ymm0,%ymm12
    26f4:	c4 c1 55 db ec       	vpand  %ymm12,%ymm5,%ymm5
    26f9:	c5 cd eb f5          	vpor   %ymm5,%ymm6,%ymm6
    26fd:	49 83 f8 01          	cmp    $0x1,%r8
    2701:	0f 86 ad 00 00 00    	jbe    27b4 <_Z36four_columns_c_cmp_with_literal_nP_SPmmPPhjmmS1_jmmS1_jmmS1_jmm+0x524>
    2707:	c4 e2 7d 17 db       	vptest %ymm3,%ymm3
    270c:	0f 84 a2 00 00 00    	je     27b4 <_Z36four_columns_c_cmp_with_literal_nP_SPmmPPhjmmS1_jmmS1_jmmS1_jmm+0x524>
    2712:	4c 8b 4d b0          	mov    -0x50(%rbp),%r9
    2716:	49 8d 0c 12          	lea    (%r10,%rdx,1),%rcx
    271a:	49 83 f8 02          	cmp    $0x2,%r8
    271e:	c4 41 7d 6f 61 20    	vmovdqa 0x20(%r9),%ymm12
    2724:	4c 8b 4b 30          	mov    0x30(%rbx),%r9
    2728:	4d 8b 49 08          	mov    0x8(%r9),%r9
    272c:	c4 41 7e 6f 2c 09    	vmovdqu (%r9,%rcx,1),%ymm13
    2732:	c4 c1 15 64 c4       	vpcmpgtb %ymm12,%ymm13,%ymm0
    2737:	c5 e5 db e8          	vpand  %ymm0,%ymm3,%ymm5
    273b:	c4 41 1d 74 f5       	vpcmpeqb %ymm13,%ymm12,%ymm14
    2740:	c5 dd eb e5          	vpor   %ymm5,%ymm4,%ymm4
    2744:	c4 41 65 db ee       	vpand  %ymm14,%ymm3,%ymm13
    2749:	76 69                	jbe    27b4 <_Z36four_columns_c_cmp_with_literal_nP_SPmmPPhjmmS1_jmmS1_jmmS1_jmm+0x524>
    274b:	c4 42 7d 17 ed       	vptest %ymm13,%ymm13
    2750:	74 62                	je     27b4 <_Z36four_columns_c_cmp_with_literal_nP_SPmmPPhjmmS1_jmmS1_jmmS1_jmm+0x524>
    2752:	4c 8b 4d b0          	mov    -0x50(%rbp),%r9
    2756:	49 8d 0c 12          	lea    (%r10,%rdx,1),%rcx
    275a:	49 83 f8 03          	cmp    $0x3,%r8
    275e:	c4 c1 7d 6f 69 40    	vmovdqa 0x40(%r9),%ymm5
    2764:	4c 8b 4b 30          	mov    0x30(%rbx),%r9
    2768:	4d 8b 49 10          	mov    0x10(%r9),%r9
    276c:	c4 41 7e 6f 24 09    	vmovdqu (%r9,%rcx,1),%ymm12
    2772:	c5 9d 64 c5          	vpcmpgtb %ymm5,%ymm12,%ymm0
    2776:	c5 95 db d8          	vpand  %ymm0,%ymm13,%ymm3
    277a:	c4 41 55 74 f4       	vpcmpeqb %ymm12,%ymm5,%ymm14
    277f:	c5 dd eb e3          	vpor   %ymm3,%ymm4,%ymm4
    2783:	c4 c1 15 db de       	vpand  %ymm14,%ymm13,%ymm3
    2788:	76 2a                	jbe    27b4 <_Z36four_columns_c_cmp_with_literal_nP_SPmmPPhjmmS1_jmmS1_jmmS1_jmm+0x524>
    278a:	c4 e2 7d 17 db       	vptest %ymm3,%ymm3
    278f:	74 23                	je     27b4 <_Z36four_columns_c_cmp_with_literal_nP_SPmmPPhjmmS1_jmmS1_jmmS1_jmm+0x524>
    2791:	4c 8b 4b 30          	mov    0x30(%rbx),%r9
    2795:	49 8d 0c 12          	lea    (%r10,%rdx,1),%rcx
    2799:	4d 8b 49 18          	mov    0x18(%r9),%r9
    279d:	c4 c1 7e 6f 04 09    	vmovdqu (%r9,%rcx,1),%ymm0
    27a3:	48 8b 4d b0          	mov    -0x50(%rbp),%rcx
    27a7:	c5 fd 64 69 60       	vpcmpgtb 0x60(%rcx),%ymm0,%ymm5
    27ac:	c5 e5 db dd          	vpand  %ymm5,%ymm3,%ymm3
    27b0:	c5 dd eb e3          	vpor   %ymm3,%ymm4,%ymm4
    27b4:	48 83 fe 01          	cmp    $0x1,%rsi
    27b8:	0f 86 b6 00 00 00    	jbe    2874 <_Z36four_columns_c_cmp_with_literal_nP_SPmmPPhjmmS1_jmmS1_jmmS1_jmm+0x5e4>
    27be:	c4 e2 7d 17 c9       	vptest %ymm1,%ymm1
    27c3:	0f 84 ab 00 00 00    	je     2874 <_Z36four_columns_c_cmp_with_literal_nP_SPmmPPhjmmS1_jmmS1_jmmS1_jmm+0x5e4>
    27c9:	4c 8b 8d 70 ff ff ff 	mov    -0x90(%rbp),%r9
    27d0:	49 8d 0c 12          	lea    (%r10,%rdx,1),%rcx
    27d4:	48 83 fe 02          	cmp    $0x2,%rsi
    27d8:	c4 c1 7d 6f 69 20    	vmovdqa 0x20(%r9),%ymm5
    27de:	4c 8b 4b 50          	mov    0x50(%rbx),%r9
    27e2:	4d 8b 49 08          	mov    0x8(%r9),%r9
    27e6:	c4 41 7e 6f 24 09    	vmovdqu (%r9,%rcx,1),%ymm12
    27ec:	c4 c1 55 64 c4       	vpcmpgtb %ymm12,%ymm5,%ymm0
    27f1:	c5 f5 db d8          	vpand  %ymm0,%ymm1,%ymm3
    27f5:	c4 41 55 74 ec       	vpcmpeqb %ymm12,%ymm5,%ymm13
    27fa:	c5 ed eb d3          	vpor   %ymm3,%ymm2,%ymm2
    27fe:	c4 41 75 db e5       	vpand  %ymm13,%ymm1,%ymm12
    2803:	76 6f                	jbe    2874 <_Z36four_columns_c_cmp_with_literal_nP_SPmmPPhjmmS1_jmmS1_jmmS1_jmm+0x5e4>
    2805:	c4 42 7d 17 e4       	vptest %ymm12,%ymm12
    280a:	74 68                	je     2874 <_Z36four_columns_c_cmp_with_literal_nP_SPmmPPhjmmS1_jmmS1_jmmS1_jmm+0x5e4>
    280c:	4c 8b 8d 70 ff ff ff 	mov    -0x90(%rbp),%r9
    2813:	49 8d 0c 12          	lea    (%r10,%rdx,1),%rcx
    2817:	48 83 fe 03          	cmp    $0x3,%rsi
    281b:	c4 c1 7d 6f 59 40    	vmovdqa 0x40(%r9),%ymm3
    2821:	4c 8b 4b 50          	mov    0x50(%rbx),%r9
    2825:	4d 8b 49 10          	mov    0x10(%r9),%r9
    2829:	c4 c1 7e 6f 2c 09    	vmovdqu (%r9,%rcx,1),%ymm5
    282f:	c5 e5 64 c5          	vpcmpgtb %ymm5,%ymm3,%ymm0
    2833:	c5 9d db c8          	vpand  %ymm0,%ymm12,%ymm1
    2837:	c5 65 74 ed          	vpcmpeqb %ymm5,%ymm3,%ymm13
    283b:	c5 ed eb d1          	vpor   %ymm1,%ymm2,%ymm2
    283f:	c4 c1 1d db cd       	vpand  %ymm13,%ymm12,%ymm1
    2844:	76 2e                	jbe    2874 <_Z36four_columns_c_cmp_with_literal_nP_SPmmPPhjmmS1_jmmS1_jmmS1_jmm+0x5e4>
    2846:	c4 e2 7d 17 c9       	vptest %ymm1,%ymm1
    284b:	74 27                	je     2874 <_Z36four_columns_c_cmp_with_literal_nP_SPmmPPhjmmS1_jmmS1_jmmS1_jmm+0x5e4>
    284d:	4c 8b 8d 70 ff ff ff 	mov    -0x90(%rbp),%r9
    2854:	49 8d 0c 12          	lea    (%r10,%rdx,1),%rcx
    2858:	c4 c1 7d 6f 41 60    	vmovdqa 0x60(%r9),%ymm0
    285e:	4c 8b 4b 50          	mov    0x50(%rbx),%r9
    2862:	4d 8b 49 18          	mov    0x18(%r9),%r9
    2866:	c4 c1 7d 64 1c 09    	vpcmpgtb (%r9,%rcx,1),%ymm0,%ymm3
    286c:	c5 f5 db cb          	vpand  %ymm3,%ymm1,%ymm1
    2870:	c5 ed eb d1          	vpor   %ymm1,%ymm2,%ymm2
    2874:	c5 bd db c6          	vpand  %ymm6,%ymm8,%ymm0
    2878:	89 d1                	mov    %edx,%ecx
    287a:	c5 dd db ca          	vpand  %ymm2,%ymm4,%ymm1
    287e:	c5 fd eb d1          	vpor   %ymm1,%ymm0,%ymm2
    2882:	48 83 c2 20          	add    $0x20,%rdx
    2886:	c5 7d d7 ca          	vpmovmskb %ymm2,%r9d
    288a:	49 d3 e1             	shl    %cl,%r9
    288d:	49 0b c1             	or     %r9,%rax
    2890:	48 83 fa 40          	cmp    $0x40,%rdx
    2894:	0f 82 b0 fc ff ff    	jb     254a <_Z36four_columns_c_cmp_with_literal_nP_SPmmPPhjmmS1_jmmS1_jmmS1_jmm+0x2ba>
    289a:	48 8b 4d c8          	mov    -0x38(%rbp),%rcx
    289e:	49 83 c2 40          	add    $0x40,%r10
    28a2:	48 8b 7d c0          	mov    -0x40(%rbp),%rdi
    28a6:	49 83 c5 40          	add    $0x40,%r13
    28aa:	4c 8b 4d b8          	mov    -0x48(%rbp),%r9
    28ae:	49 83 c6 40          	add    $0x40,%r14
    28b2:	48 0f c3 04 cf       	movnti %rax,(%rdi,%rcx,8)
    28b7:	49 83 c7 40          	add    $0x40,%r15
    28bb:	49 83 c3 40          	add    $0x40,%r11
    28bf:	48 ff c1             	inc    %rcx
    28c2:	4d 3b d1             	cmp    %r9,%r10
    28c5:	0f 82 6b fc ff ff    	jb     2536 <_Z36four_columns_c_cmp_with_literal_nP_SPmmPPhjmmS1_jmmS1_jmmS1_jmm+0x2a6>
    28cb:	48 8b 85 70 ff ff ff 	mov    -0x90(%rbp),%rax
    28d2:	48 89 c2             	mov    %rax,%rdx
    28d5:	48 8b 45 90          	mov    -0x70(%rbp),%rax
    28d9:	48 83 c0 1f          	add    $0x1f,%rax
    28dd:	48 83 e0 e0          	and    $0xffffffffffffffe0,%rax
    28e1:	48 03 e0             	add    %rax,%rsp
    28e4:	48 8b 55 b0          	mov    -0x50(%rbp),%rdx
    28e8:	48 8b 45 88          	mov    -0x78(%rbp),%rax
    28ec:	48 83 c0 1f          	add    $0x1f,%rax
    28f0:	48 83 e0 e0          	and    $0xffffffffffffffe0,%rax
    28f4:	48 03 e0             	add    %rax,%rsp
    28f7:	48 8b 55 a0          	mov    -0x60(%rbp),%rdx
    28fb:	48 8b 45 80          	mov    -0x80(%rbp),%rax
    28ff:	48 83 c0 1f          	add    $0x1f,%rax
    2903:	48 83 e0 e0          	and    $0xffffffffffffffe0,%rax
    2907:	48 03 e0             	add    %rax,%rsp
    290a:	48 8b 55 a8          	mov    -0x58(%rbp),%rdx
    290e:	48 8b 85 78 ff ff ff 	mov    -0x88(%rbp),%rax
    2915:	48 83 c0 1f          	add    $0x1f,%rax
    2919:	48 83 e0 e0          	and    $0xffffffffffffffe0,%rax
    291d:	48 03 e0             	add    %rax,%rsp
    2920:	48 8d 65 e0          	lea    -0x20(%rbp),%rsp
    2924:	41 5f                	pop    %r15
    2926:	41 5e                	pop    %r14
    2928:	41 5d                	pop    %r13
    292a:	41 5c                	pop    %r12
    292c:	5d                   	pop    %rbp
    292d:	48 89 dc             	mov    %rbx,%rsp
    2930:	5b                   	pop    %rbx
    2931:	c3                   	retq   
    2932:	0f 1f 80 00 00 00 00 	nopl   0x0(%rax)
    2939:	0f 1f 80 00 00 00 00 	nopl   0x0(%rax)

0000000000002940 <_Z36four_columns_c_cmp_with_literal_P_nSPmmPPhjmmS1_jmmS1_jmmS1_jmm>:
    2940:	53                   	push   %rbx
    2941:	48 89 e3             	mov    %rsp,%rbx
    2944:	48 83 e4 e0          	and    $0xffffffffffffffe0,%rsp
    2948:	55                   	push   %rbp
    2949:	55                   	push   %rbp
    294a:	48 8b 6b 08          	mov    0x8(%rbx),%rbp
    294e:	48 89 6c 24 08       	mov    %rbp,0x8(%rsp)
    2953:	48 89 e5             	mov    %rsp,%rbp
    2956:	41 54                	push   %r12
    2958:	41 55                	push   %r13
    295a:	41 56                	push   %r14
    295c:	41 57                	push   %r15
    295e:	48 81 ec 90 00 00 00 	sub    $0x90,%rsp
    2965:	4d 89 c4             	mov    %r8,%r12
    2968:	4c 89 e0             	mov    %r12,%rax
    296b:	48 c1 e0 05          	shl    $0x5,%rax
    296f:	48 89 55 88          	mov    %rdx,-0x78(%rbp)
    2973:	48 89 75 a8          	mov    %rsi,-0x58(%rbp)
    2977:	48 89 85 68 ff ff ff 	mov    %rax,-0x98(%rbp)
    297e:	48 83 c0 1f          	add    $0x1f,%rax
    2982:	48 83 e0 e0          	and    $0xffffffffffffffe0,%rax
    2986:	48 2b e0             	sub    %rax,%rsp
    2989:	48 89 e0             	mov    %rsp,%rax
    298c:	48 89 c6             	mov    %rax,%rsi
    298f:	41 89 cf             	mov    %ecx,%r15d
    2992:	44 89 c9             	mov    %r9d,%ecx
    2995:	48 8b 43 20          	mov    0x20(%rbx),%rax
    2999:	49 d3 e7             	shl    %cl,%r15
    299c:	48 c1 e0 05          	shl    $0x5,%rax
    29a0:	48 89 85 70 ff ff ff 	mov    %rax,-0x90(%rbp)
    29a7:	48 83 c0 1f          	add    $0x1f,%rax
    29ab:	48 83 e0 e0          	and    $0xffffffffffffffe0,%rax
    29af:	48 2b e0             	sub    %rax,%rsp
    29b2:	48 89 e0             	mov    %rsp,%rax
    29b5:	49 89 c0             	mov    %rax,%r8
    29b8:	8b 4b 28             	mov    0x28(%rbx),%ecx
    29bb:	44 8b 73 18          	mov    0x18(%rbx),%r14d
    29bf:	48 8b 43 40          	mov    0x40(%rbx),%rax
    29c3:	49 d3 e6             	shl    %cl,%r14
    29c6:	48 c1 e0 05          	shl    $0x5,%rax
    29ca:	48 89 85 78 ff ff ff 	mov    %rax,-0x88(%rbp)
    29d1:	48 83 c0 1f          	add    $0x1f,%rax
    29d5:	48 83 e0 e0          	and    $0xffffffffffffffe0,%rax
    29d9:	48 2b e0             	sub    %rax,%rsp
    29dc:	48 89 e0             	mov    %rsp,%rax
    29df:	49 89 c1             	mov    %rax,%r9
    29e2:	8b 4b 48             	mov    0x48(%rbx),%ecx
    29e5:	44 8b 6b 38          	mov    0x38(%rbx),%r13d
    29e9:	48 8b 43 60          	mov    0x60(%rbx),%rax
    29ed:	49 d3 e5             	shl    %cl,%r13
    29f0:	48 c1 e0 05          	shl    $0x5,%rax
    29f4:	48 89 45 80          	mov    %rax,-0x80(%rbp)
    29f8:	48 83 c0 1f          	add    $0x1f,%rax
    29fc:	48 83 e0 e0          	and    $0xffffffffffffffe0,%rax
    2a00:	48 2b e0             	sub    %rax,%rsp
    2a03:	48 89 e0             	mov    %rsp,%rax
    2a06:	8b 4b 68             	mov    0x68(%rbx),%ecx
    2a09:	44 8b 53 58          	mov    0x58(%rbx),%r10d
    2a0d:	49 d3 e2             	shl    %cl,%r10
    2a10:	33 c9                	xor    %ecx,%ecx
    2a12:	33 d2                	xor    %edx,%edx
    2a14:	4d 85 e4             	test   %r12,%r12
    2a17:	76 5f                	jbe    2a78 <_Z36four_columns_c_cmp_with_literal_P_nSPmmPPhjmmS1_jmmS1_jmmS1_jmm+0x138>
    2a19:	4c 89 85 50 ff ff ff 	mov    %r8,-0xb0(%rbp)
    2a20:	4e 8d 1c e5 f8 ff ff 	lea    -0x8(,%r12,8),%r11
    2a27:	ff 
    2a28:	48 89 7d 98          	mov    %rdi,-0x68(%rbp)
    2a2c:	48 89 cf             	mov    %rcx,%rdi
    2a2f:	44 89 d9             	mov    %r11d,%ecx
    2a32:	45 89 f8             	mov    %r15d,%r8d
    2a35:	41 d3 e8             	shr    %cl,%r8d
    2a38:	48 ff c7             	inc    %rdi
    2a3b:	41 83 f0 80          	xor    $0xffffff80,%r8d
    2a3f:	49 83 c3 f8          	add    $0xfffffffffffffff8,%r11
    2a43:	45 0f b6 c0          	movzbl %r8b,%r8d
    2a47:	c4 c1 79 6e c0       	vmovd  %r8d,%xmm0
    2a4c:	c5 f9 60 c8          	vpunpcklbw %xmm0,%xmm0,%xmm1
    2a50:	c5 f1 60 d1          	vpunpcklbw %xmm1,%xmm1,%xmm2
    2a54:	c5 f9 70 da 00       	vpshufd $0x0,%xmm2,%xmm3
    2a59:	c4 e3 65 18 e3 01    	vinsertf128 $0x1,%xmm3,%ymm3,%ymm4
    2a5f:	c5 fc 29 24 32       	vmovaps %ymm4,(%rdx,%rsi,1)
    2a64:	48 83 c2 20          	add    $0x20,%rdx
    2a68:	49 3b fc             	cmp    %r12,%rdi
    2a6b:	72 c2                	jb     2a2f <_Z36four_columns_c_cmp_with_literal_P_nSPmmPPhjmmS1_jmmS1_jmmS1_jmm+0xef>
    2a6d:	4c 8b 85 50 ff ff ff 	mov    -0xb0(%rbp),%r8
    2a74:	48 8b 7d 98          	mov    -0x68(%rbp),%rdi
    2a78:	33 d2                	xor    %edx,%edx
    2a7a:	45 33 ff             	xor    %r15d,%r15d
    2a7d:	48 83 7b 20 00       	cmpq   $0x0,0x20(%rbx)
    2a82:	76 5e                	jbe    2ae2 <_Z36four_columns_c_cmp_with_literal_P_nSPmmPPhjmmS1_jmmS1_jmmS1_jmm+0x1a2>
    2a84:	48 8b 4b 20          	mov    0x20(%rbx),%rcx
    2a88:	48 89 7d 98          	mov    %rdi,-0x68(%rbp)
    2a8c:	48 89 cf             	mov    %rcx,%rdi
    2a8f:	4c 89 65 a0          	mov    %r12,-0x60(%rbp)
    2a93:	4c 8d 1c cd f8 ff ff 	lea    -0x8(,%rcx,8),%r11
    2a9a:	ff 
    2a9b:	44 89 d9             	mov    %r11d,%ecx
    2a9e:	45 89 f4             	mov    %r14d,%r12d
    2aa1:	41 d3 ec             	shr    %cl,%r12d
    2aa4:	48 ff c2             	inc    %rdx
    2aa7:	41 83 f4 80          	xor    $0xffffff80,%r12d
    2aab:	49 83 c3 f8          	add    $0xfffffffffffffff8,%r11
    2aaf:	45 0f b6 e4          	movzbl %r12b,%r12d
    2ab3:	c4 c1 79 6e c4       	vmovd  %r12d,%xmm0
    2ab8:	c5 f9 60 c8          	vpunpcklbw %xmm0,%xmm0,%xmm1
    2abc:	c5 f1 60 d1          	vpunpcklbw %xmm1,%xmm1,%xmm2
    2ac0:	c5 f9 70 da 00       	vpshufd $0x0,%xmm2,%xmm3
    2ac5:	c4 e3 65 18 e3 01    	vinsertf128 $0x1,%xmm3,%ymm3,%ymm4
    2acb:	c4 81 7c 29 24 07    	vmovaps %ymm4,(%r15,%r8,1)
    2ad1:	49 83 c7 20          	add    $0x20,%r15
    2ad5:	48 3b d7             	cmp    %rdi,%rdx
    2ad8:	72 c1                	jb     2a9b <_Z36four_columns_c_cmp_with_literal_P_nSPmmPPhjmmS1_jmmS1_jmmS1_jmm+0x15b>
    2ada:	48 8b 7d 98          	mov    -0x68(%rbp),%rdi
    2ade:	4c 8b 65 a0          	mov    -0x60(%rbp),%r12
    2ae2:	33 d2                	xor    %edx,%edx
    2ae4:	45 33 ff             	xor    %r15d,%r15d
    2ae7:	48 83 7b 40 00       	cmpq   $0x0,0x40(%rbx)
    2aec:	76 56                	jbe    2b44 <_Z36four_columns_c_cmp_with_literal_P_nSPmmPPhjmmS1_jmmS1_jmmS1_jmm+0x204>
    2aee:	48 8b 4b 40          	mov    0x40(%rbx),%rcx
    2af2:	49 89 cb             	mov    %rcx,%r11
    2af5:	4c 89 65 a0          	mov    %r12,-0x60(%rbp)
    2af9:	4c 8d 34 cd f8 ff ff 	lea    -0x8(,%rcx,8),%r14
    2b00:	ff 
    2b01:	44 89 f1             	mov    %r14d,%ecx
    2b04:	45 89 ec             	mov    %r13d,%r12d
    2b07:	41 d3 ec             	shr    %cl,%r12d
    2b0a:	48 ff c2             	inc    %rdx
    2b0d:	41 83 f4 80          	xor    $0xffffff80,%r12d
    2b11:	49 83 c6 f8          	add    $0xfffffffffffffff8,%r14
    2b15:	45 0f b6 e4          	movzbl %r12b,%r12d
    2b19:	c4 c1 79 6e c4       	vmovd  %r12d,%xmm0
    2b1e:	c5 f9 60 c8          	vpunpcklbw %xmm0,%xmm0,%xmm1
    2b22:	c5 f1 60 d1          	vpunpcklbw %xmm1,%xmm1,%xmm2
    2b26:	c5 f9 70 da 00       	vpshufd $0x0,%xmm2,%xmm3
    2b2b:	c4 e3 65 18 e3 01    	vinsertf128 $0x1,%xmm3,%ymm3,%ymm4
    2b31:	c4 81 7c 29 24 0f    	vmovaps %ymm4,(%r15,%r9,1)
    2b37:	49 83 c7 20          	add    $0x20,%r15
    2b3b:	49 3b d3             	cmp    %r11,%rdx
    2b3e:	72 c1                	jb     2b01 <_Z36four_columns_c_cmp_with_literal_P_nSPmmPPhjmmS1_jmmS1_jmmS1_jmm+0x1c1>
    2b40:	4c 8b 65 a0          	mov    -0x60(%rbp),%r12
    2b44:	45 33 f6             	xor    %r14d,%r14d
    2b47:	45 33 ff             	xor    %r15d,%r15d
    2b4a:	48 83 7b 60 00       	cmpq   $0x0,0x60(%rbx)
    2b4f:	76 4a                	jbe    2b9b <_Z36four_columns_c_cmp_with_literal_P_nSPmmPPhjmmS1_jmmS1_jmmS1_jmm+0x25b>
    2b51:	48 8b 4b 60          	mov    0x60(%rbx),%rcx
    2b55:	49 89 cd             	mov    %rcx,%r13
    2b58:	4c 8d 1c cd f8 ff ff 	lea    -0x8(,%rcx,8),%r11
    2b5f:	ff 
    2b60:	44 89 d9             	mov    %r11d,%ecx
    2b63:	44 89 d2             	mov    %r10d,%edx
    2b66:	d3 ea                	shr    %cl,%edx
    2b68:	49 ff c6             	inc    %r14
    2b6b:	83 f2 80             	xor    $0xffffff80,%edx
    2b6e:	49 83 c3 f8          	add    $0xfffffffffffffff8,%r11
    2b72:	0f b6 d2             	movzbl %dl,%edx
    2b75:	c5 f9 6e c2          	vmovd  %edx,%xmm0
    2b79:	c5 f9 60 c8          	vpunpcklbw %xmm0,%xmm0,%xmm1
    2b7d:	c5 f1 60 d1          	vpunpcklbw %xmm1,%xmm1,%xmm2
    2b81:	c5 f9 70 da 00       	vpshufd $0x0,%xmm2,%xmm3
    2b86:	c4 e3 65 18 e3 01    	vinsertf128 $0x1,%xmm3,%ymm3,%ymm4
    2b8c:	c4 c1 7c 29 24 07    	vmovaps %ymm4,(%r15,%rax,1)
    2b92:	49 83 c7 20          	add    $0x20,%r15
    2b96:	4d 3b f5             	cmp    %r13,%r14
    2b99:	72 c5                	jb     2b60 <_Z36four_columns_c_cmp_with_literal_P_nSPmmPPhjmmS1_jmmS1_jmmS1_jmm+0x220>
    2b9b:	45 33 f6             	xor    %r14d,%r14d
    2b9e:	33 d2                	xor    %edx,%edx
    2ba0:	48 83 7d a8 00       	cmpq   $0x0,-0x58(%rbp)
    2ba5:	0f 86 68 04 00 00    	jbe    3013 <_Z36four_columns_c_cmp_with_literal_P_nSPmmPPhjmmS1_jmmS1_jmmS1_jmm+0x6d3>
    2bab:	4c 8b 7b 10          	mov    0x10(%rbx),%r15
    2baf:	4c 8b 6b 30          	mov    0x30(%rbx),%r13
    2bb3:	48 8b 4b 50          	mov    0x50(%rbx),%rcx
    2bb7:	4c 8b 55 88          	mov    -0x78(%rbp),%r10
    2bbb:	c5 7d 6f 16          	vmovdqa (%rsi),%ymm10
    2bbf:	c4 41 7d 6f 08       	vmovdqa (%r8),%ymm9
    2bc4:	c4 41 7d 6f 19       	vmovdqa (%r9),%ymm11
    2bc9:	c5 fd 6f 38          	vmovdqa (%rax),%ymm7
    2bcd:	4d 8b 12             	mov    (%r10),%r10
    2bd0:	4d 8b 1f             	mov    (%r15),%r11
    2bd3:	49 89 d7             	mov    %rdx,%r15
    2bd6:	4d 8b 6d 00          	mov    0x0(%r13),%r13
    2bda:	48 8b 09             	mov    (%rcx),%rcx
    2bdd:	48 89 45 90          	mov    %rax,-0x70(%rbp)
    2be1:	4c 89 8d 58 ff ff ff 	mov    %r9,-0xa8(%rbp)
    2be8:	4c 89 85 50 ff ff ff 	mov    %r8,-0xb0(%rbp)
    2bef:	48 89 b5 60 ff ff ff 	mov    %rsi,-0xa0(%rbp)
    2bf6:	4c 89 65 a0          	mov    %r12,-0x60(%rbp)
    2bfa:	45 33 e4             	xor    %r12d,%r12d
    2bfd:	4c 89 d2             	mov    %r10,%rdx
    2c00:	4c 89 6d c8          	mov    %r13,-0x38(%rbp)
    2c04:	33 c0                	xor    %eax,%eax
    2c06:	4c 89 5d c0          	mov    %r11,-0x40(%rbp)
    2c0a:	4c 89 de             	mov    %r11,%rsi
    2c0d:	4c 89 55 b8          	mov    %r10,-0x48(%rbp)
    2c11:	4d 89 e8             	mov    %r13,%r8
    2c14:	48 89 7d 98          	mov    %rdi,-0x68(%rbp)
    2c18:	49 89 c9             	mov    %rcx,%r9
    2c1b:	48 89 4d d0          	mov    %rcx,-0x30(%rbp)
    2c1f:	4c 89 7d b0          	mov    %r15,-0x50(%rbp)
    2c23:	48 8b 7b 60          	mov    0x60(%rbx),%rdi
    2c27:	4c 8b 53 40          	mov    0x40(%rbx),%r10
    2c2b:	4c 8b 5b 20          	mov    0x20(%rbx),%r11
    2c2f:	4c 8b 6d a0          	mov    -0x60(%rbp),%r13
    2c33:	0f 18 82 00 04 00 00 	prefetchnta 0x400(%rdx)
    2c3a:	49 83 fd 01          	cmp    $0x1,%r13
    2c3e:	0f 18 86 00 04 00 00 	prefetchnta 0x400(%rsi)
    2c45:	41 0f 18 80 00 04 00 	prefetchnta 0x400(%r8)
    2c4c:	00 
    2c4d:	41 0f 18 81 00 04 00 	prefetchnta 0x400(%r9)
    2c54:	00 
    2c55:	c5 fe 6f 02          	vmovdqu (%rdx),%ymm0
    2c59:	c5 fe 6f 26          	vmovdqu (%rsi),%ymm4
    2c5d:	c4 c1 7e 6f 10       	vmovdqu (%r8),%ymm2
    2c62:	c4 c1 7e 6f 09       	vmovdqu (%r9),%ymm1
    2c67:	c4 41 7d 64 c2       	vpcmpgtb %ymm10,%ymm0,%ymm8
    2c6c:	c5 ad 74 c0          	vpcmpeqb %ymm0,%ymm10,%ymm0
    2c70:	c5 b5 64 f4          	vpcmpgtb %ymm4,%ymm9,%ymm6
    2c74:	c5 b5 74 ec          	vpcmpeqb %ymm4,%ymm9,%ymm5
    2c78:	c4 c1 6d 64 e3       	vpcmpgtb %ymm11,%ymm2,%ymm4
    2c7d:	c5 a5 74 da          	vpcmpeqb %ymm2,%ymm11,%ymm3
    2c81:	c5 c5 64 d1          	vpcmpgtb %ymm1,%ymm7,%ymm2
    2c85:	c5 c5 74 c9          	vpcmpeqb %ymm1,%ymm7,%ymm1
    2c89:	0f 86 bd 00 00 00    	jbe    2d4c <_Z36four_columns_c_cmp_with_literal_P_nSPmmPPhjmmS1_jmmS1_jmmS1_jmm+0x40c>
    2c8f:	c4 e2 7d 17 c0       	vptest %ymm0,%ymm0
    2c94:	0f 84 b2 00 00 00    	je     2d4c <_Z36four_columns_c_cmp_with_literal_P_nSPmmPPhjmmS1_jmmS1_jmmS1_jmm+0x40c>
    2c9a:	4c 8b bd 60 ff ff ff 	mov    -0xa0(%rbp),%r15
    2ca1:	49 8d 0c 06          	lea    (%r14,%rax,1),%rcx
    2ca5:	49 83 fd 02          	cmp    $0x2,%r13
    2ca9:	c4 41 7d 6f 77 20    	vmovdqa 0x20(%r15),%ymm14
    2caf:	4c 8b 7d 88          	mov    -0x78(%rbp),%r15
    2cb3:	4d 8b 7f 08          	mov    0x8(%r15),%r15
    2cb7:	c4 41 7e 6f 3c 0f    	vmovdqu (%r15,%rcx,1),%ymm15
    2cbd:	c4 41 05 64 e6       	vpcmpgtb %ymm14,%ymm15,%ymm12
    2cc2:	c4 41 7d db ec       	vpand  %ymm12,%ymm0,%ymm13
    2cc7:	c4 41 0d 74 e7       	vpcmpeqb %ymm15,%ymm14,%ymm12
    2ccc:	c4 41 3d eb c5       	vpor   %ymm13,%ymm8,%ymm8
    2cd1:	c4 c1 7d db c4       	vpand  %ymm12,%ymm0,%ymm0
    2cd6:	76 74                	jbe    2d4c <_Z36four_columns_c_cmp_with_literal_P_nSPmmPPhjmmS1_jmmS1_jmmS1_jmm+0x40c>
    2cd8:	c4 e2 7d 17 c0       	vptest %ymm0,%ymm0
    2cdd:	74 6d                	je     2d4c <_Z36four_columns_c_cmp_with_literal_P_nSPmmPPhjmmS1_jmmS1_jmmS1_jmm+0x40c>
    2cdf:	4c 8b bd 60 ff ff ff 	mov    -0xa0(%rbp),%r15
    2ce6:	49 8d 0c 06          	lea    (%r14,%rax,1),%rcx
    2cea:	49 83 fd 03          	cmp    $0x3,%r13
    2cee:	c4 41 7d 6f 77 40    	vmovdqa 0x40(%r15),%ymm14
    2cf4:	4c 8b 7d 88          	mov    -0x78(%rbp),%r15
    2cf8:	4d 8b 7f 10          	mov    0x10(%r15),%r15
    2cfc:	c4 41 7e 6f 3c 0f    	vmovdqu (%r15,%rcx,1),%ymm15
    2d02:	c4 41 05 64 e6       	vpcmpgtb %ymm14,%ymm15,%ymm12
    2d07:	c4 41 7d db ec       	vpand  %ymm12,%ymm0,%ymm13
    2d0c:	c4 41 0d 74 e7       	vpcmpeqb %ymm15,%ymm14,%ymm12
    2d11:	c4 41 3d eb c5       	vpor   %ymm13,%ymm8,%ymm8
    2d16:	c4 41 7d db e4       	vpand  %ymm12,%ymm0,%ymm12
    2d1b:	76 2f                	jbe    2d4c <_Z36four_columns_c_cmp_with_literal_P_nSPmmPPhjmmS1_jmmS1_jmmS1_jmm+0x40c>
    2d1d:	c4 42 7d 17 e4       	vptest %ymm12,%ymm12
    2d22:	74 28                	je     2d4c <_Z36four_columns_c_cmp_with_literal_P_nSPmmPPhjmmS1_jmmS1_jmmS1_jmm+0x40c>
    2d24:	4c 8b 7d 88          	mov    -0x78(%rbp),%r15
    2d28:	49 8d 0c 06          	lea    (%r14,%rax,1),%rcx
    2d2c:	4d 8b 7f 18          	mov    0x18(%r15),%r15
    2d30:	c4 c1 7e 6f 04 0f    	vmovdqu (%r15,%rcx,1),%ymm0
    2d36:	48 8b 8d 60 ff ff ff 	mov    -0xa0(%rbp),%rcx
    2d3d:	c5 7d 64 69 60       	vpcmpgtb 0x60(%rcx),%ymm0,%ymm13
    2d42:	c4 41 1d db e5       	vpand  %ymm13,%ymm12,%ymm12
    2d47:	c4 41 3d eb c4       	vpor   %ymm12,%ymm8,%ymm8
    2d4c:	49 83 fb 01          	cmp    $0x1,%r11
    2d50:	0f 86 ba 00 00 00    	jbe    2e10 <_Z36four_columns_c_cmp_with_literal_P_nSPmmPPhjmmS1_jmmS1_jmmS1_jmm+0x4d0>
    2d56:	c4 e2 7d 17 ed       	vptest %ymm5,%ymm5
    2d5b:	0f 84 af 00 00 00    	je     2e10 <_Z36four_columns_c_cmp_with_literal_P_nSPmmPPhjmmS1_jmmS1_jmmS1_jmm+0x4d0>
    2d61:	4c 8b bd 50 ff ff ff 	mov    -0xb0(%rbp),%r15
    2d68:	49 8d 0c 06          	lea    (%r14,%rax,1),%rcx
    2d6c:	49 83 fb 02          	cmp    $0x2,%r11
    2d70:	c4 41 7d 6f 6f 20    	vmovdqa 0x20(%r15),%ymm13
    2d76:	4c 8b 7b 10          	mov    0x10(%rbx),%r15
    2d7a:	4d 8b 7f 08          	mov    0x8(%r15),%r15
    2d7e:	c4 41 7e 6f 34 0f    	vmovdqu (%r15,%rcx,1),%ymm14
    2d84:	c4 c1 15 64 c6       	vpcmpgtb %ymm14,%ymm13,%ymm0
    2d89:	c5 55 db e0          	vpand  %ymm0,%ymm5,%ymm12
    2d8d:	c4 41 15 74 fe       	vpcmpeqb %ymm14,%ymm13,%ymm15
    2d92:	c4 c1 4d eb f4       	vpor   %ymm12,%ymm6,%ymm6
    2d97:	c4 41 55 db f7       	vpand  %ymm15,%ymm5,%ymm14
    2d9c:	76 72                	jbe    2e10 <_Z36four_columns_c_cmp_with_literal_P_nSPmmPPhjmmS1_jmmS1_jmmS1_jmm+0x4d0>
    2d9e:	c4 42 7d 17 f6       	vptest %ymm14,%ymm14
    2da3:	74 6b                	je     2e10 <_Z36four_columns_c_cmp_with_literal_P_nSPmmPPhjmmS1_jmmS1_jmmS1_jmm+0x4d0>
    2da5:	4c 8b bd 50 ff ff ff 	mov    -0xb0(%rbp),%r15
    2dac:	49 8d 0c 06          	lea    (%r14,%rax,1),%rcx
    2db0:	49 83 fb 03          	cmp    $0x3,%r11
    2db4:	c4 41 7d 6f 67 40    	vmovdqa 0x40(%r15),%ymm12
    2dba:	4c 8b 7b 10          	mov    0x10(%rbx),%r15
    2dbe:	4d 8b 7f 10          	mov    0x10(%r15),%r15
    2dc2:	c4 41 7e 6f 2c 0f    	vmovdqu (%r15,%rcx,1),%ymm13
    2dc8:	c4 c1 1d 64 c5       	vpcmpgtb %ymm13,%ymm12,%ymm0
    2dcd:	c5 8d db e8          	vpand  %ymm0,%ymm14,%ymm5
    2dd1:	c4 41 1d 74 fd       	vpcmpeqb %ymm13,%ymm12,%ymm15
    2dd6:	c5 cd eb f5          	vpor   %ymm5,%ymm6,%ymm6
    2dda:	c4 c1 0d db ef       	vpand  %ymm15,%ymm14,%ymm5
    2ddf:	76 2f                	jbe    2e10 <_Z36four_columns_c_cmp_with_literal_P_nSPmmPPhjmmS1_jmmS1_jmmS1_jmm+0x4d0>
    2de1:	c4 e2 7d 17 ed       	vptest %ymm5,%ymm5
    2de6:	74 28                	je     2e10 <_Z36four_columns_c_cmp_with_literal_P_nSPmmPPhjmmS1_jmmS1_jmmS1_jmm+0x4d0>
    2de8:	4c 8b bd 50 ff ff ff 	mov    -0xb0(%rbp),%r15
    2def:	49 8d 0c 06          	lea    (%r14,%rax,1),%rcx
    2df3:	c4 c1 7d 6f 47 60    	vmovdqa 0x60(%r15),%ymm0
    2df9:	4c 8b 7b 10          	mov    0x10(%rbx),%r15
    2dfd:	4d 8b 7f 18          	mov    0x18(%r15),%r15
    2e01:	c4 41 7d 64 24 0f    	vpcmpgtb (%r15,%rcx,1),%ymm0,%ymm12
    2e07:	c4 c1 55 db ec       	vpand  %ymm12,%ymm5,%ymm5
    2e0c:	c5 cd eb f5          	vpor   %ymm5,%ymm6,%ymm6
    2e10:	49 83 fa 01          	cmp    $0x1,%r10
    2e14:	0f 86 b6 00 00 00    	jbe    2ed0 <_Z36four_columns_c_cmp_with_literal_P_nSPmmPPhjmmS1_jmmS1_jmmS1_jmm+0x590>
    2e1a:	c4 e2 7d 17 db       	vptest %ymm3,%ymm3
    2e1f:	0f 84 ab 00 00 00    	je     2ed0 <_Z36four_columns_c_cmp_with_literal_P_nSPmmPPhjmmS1_jmmS1_jmmS1_jmm+0x590>
    2e25:	4c 8b bd 58 ff ff ff 	mov    -0xa8(%rbp),%r15
    2e2c:	49 8d 0c 06          	lea    (%r14,%rax,1),%rcx
    2e30:	49 83 fa 02          	cmp    $0x2,%r10
    2e34:	c4 41 7d 6f 67 20    	vmovdqa 0x20(%r15),%ymm12
    2e3a:	4c 8b 7b 30          	mov    0x30(%rbx),%r15
    2e3e:	4d 8b 7f 08          	mov    0x8(%r15),%r15
    2e42:	c4 41 7e 6f 2c 0f    	vmovdqu (%r15,%rcx,1),%ymm13
    2e48:	c4 c1 15 64 c4       	vpcmpgtb %ymm12,%ymm13,%ymm0
    2e4d:	c5 e5 db e8          	vpand  %ymm0,%ymm3,%ymm5
    2e51:	c4 41 1d 74 f5       	vpcmpeqb %ymm13,%ymm12,%ymm14
    2e56:	c5 dd eb e5          	vpor   %ymm5,%ymm4,%ymm4
    2e5a:	c4 41 65 db ee       	vpand  %ymm14,%ymm3,%ymm13
    2e5f:	76 6f                	jbe    2ed0 <_Z36four_columns_c_cmp_with_literal_P_nSPmmPPhjmmS1_jmmS1_jmmS1_jmm+0x590>
    2e61:	c4 42 7d 17 ed       	vptest %ymm13,%ymm13
    2e66:	74 68                	je     2ed0 <_Z36four_columns_c_cmp_with_literal_P_nSPmmPPhjmmS1_jmmS1_jmmS1_jmm+0x590>
    2e68:	4c 8b bd 58 ff ff ff 	mov    -0xa8(%rbp),%r15
    2e6f:	49 8d 0c 06          	lea    (%r14,%rax,1),%rcx
    2e73:	49 83 fa 03          	cmp    $0x3,%r10
    2e77:	c4 c1 7d 6f 6f 40    	vmovdqa 0x40(%r15),%ymm5
    2e7d:	4c 8b 7b 30          	mov    0x30(%rbx),%r15
    2e81:	4d 8b 7f 10          	mov    0x10(%r15),%r15
    2e85:	c4 41 7e 6f 24 0f    	vmovdqu (%r15,%rcx,1),%ymm12
    2e8b:	c5 9d 64 c5          	vpcmpgtb %ymm5,%ymm12,%ymm0
    2e8f:	c5 95 db d8          	vpand  %ymm0,%ymm13,%ymm3
    2e93:	c4 41 55 74 f4       	vpcmpeqb %ymm12,%ymm5,%ymm14
    2e98:	c5 dd eb e3          	vpor   %ymm3,%ymm4,%ymm4
    2e9c:	c4 c1 15 db de       	vpand  %ymm14,%ymm13,%ymm3
    2ea1:	76 2d                	jbe    2ed0 <_Z36four_columns_c_cmp_with_literal_P_nSPmmPPhjmmS1_jmmS1_jmmS1_jmm+0x590>
    2ea3:	c4 e2 7d 17 db       	vptest %ymm3,%ymm3
    2ea8:	74 26                	je     2ed0 <_Z36four_columns_c_cmp_with_literal_P_nSPmmPPhjmmS1_jmmS1_jmmS1_jmm+0x590>
    2eaa:	4c 8b 7b 30          	mov    0x30(%rbx),%r15
    2eae:	49 8d 0c 06          	lea    (%r14,%rax,1),%rcx
    2eb2:	4d 8b 7f 18          	mov    0x18(%r15),%r15
    2eb6:	c4 c1 7e 6f 04 0f    	vmovdqu (%r15,%rcx,1),%ymm0
    2ebc:	48 8b 8d 58 ff ff ff 	mov    -0xa8(%rbp),%rcx
    2ec3:	c5 fd 64 69 60       	vpcmpgtb 0x60(%rcx),%ymm0,%ymm5
    2ec8:	c5 e5 db dd          	vpand  %ymm5,%ymm3,%ymm3
    2ecc:	c5 dd eb e3          	vpor   %ymm3,%ymm4,%ymm4
    2ed0:	48 83 ff 01          	cmp    $0x1,%rdi
    2ed4:	0f 86 ad 00 00 00    	jbe    2f87 <_Z36four_columns_c_cmp_with_literal_P_nSPmmPPhjmmS1_jmmS1_jmmS1_jmm+0x647>
    2eda:	c4 e2 7d 17 c9       	vptest %ymm1,%ymm1
    2edf:	0f 84 a2 00 00 00    	je     2f87 <_Z36four_columns_c_cmp_with_literal_P_nSPmmPPhjmmS1_jmmS1_jmmS1_jmm+0x647>
    2ee5:	4c 8b 7d 90          	mov    -0x70(%rbp),%r15
    2ee9:	49 8d 0c 06          	lea    (%r14,%rax,1),%rcx
    2eed:	48 83 ff 02          	cmp    $0x2,%rdi
    2ef1:	c4 c1 7d 6f 6f 20    	vmovdqa 0x20(%r15),%ymm5
    2ef7:	4c 8b 7b 50          	mov    0x50(%rbx),%r15
    2efb:	4d 8b 7f 08          	mov    0x8(%r15),%r15
    2eff:	c4 41 7e 6f 24 0f    	vmovdqu (%r15,%rcx,1),%ymm12
    2f05:	c4 c1 55 64 c4       	vpcmpgtb %ymm12,%ymm5,%ymm0
    2f0a:	c5 f5 db d8          	vpand  %ymm0,%ymm1,%ymm3
    2f0e:	c4 41 55 74 ec       	vpcmpeqb %ymm12,%ymm5,%ymm13
    2f13:	c5 ed eb d3          	vpor   %ymm3,%ymm2,%ymm2
    2f17:	c4 41 75 db e5       	vpand  %ymm13,%ymm1,%ymm12
    2f1c:	76 69                	jbe    2f87 <_Z36four_columns_c_cmp_with_literal_P_nSPmmPPhjmmS1_jmmS1_jmmS1_jmm+0x647>
    2f1e:	c4 42 7d 17 e4       	vptest %ymm12,%ymm12
    2f23:	74 62                	je     2f87 <_Z36four_columns_c_cmp_with_literal_P_nSPmmPPhjmmS1_jmmS1_jmmS1_jmm+0x647>
    2f25:	4c 8b 7d 90          	mov    -0x70(%rbp),%r15
    2f29:	49 8d 0c 06          	lea    (%r14,%rax,1),%rcx
    2f2d:	48 83 ff 03          	cmp    $0x3,%rdi
    2f31:	c4 c1 7d 6f 5f 40    	vmovdqa 0x40(%r15),%ymm3
    2f37:	4c 8b 7b 50          	mov    0x50(%rbx),%r15
    2f3b:	4d 8b 7f 10          	mov    0x10(%r15),%r15
    2f3f:	c4 c1 7e 6f 2c 0f    	vmovdqu (%r15,%rcx,1),%ymm5
    2f45:	c5 e5 64 c5          	vpcmpgtb %ymm5,%ymm3,%ymm0
    2f49:	c5 9d db c8          	vpand  %ymm0,%ymm12,%ymm1
    2f4d:	c5 65 74 ed          	vpcmpeqb %ymm5,%ymm3,%ymm13
    2f51:	c5 ed eb d1          	vpor   %ymm1,%ymm2,%ymm2
    2f55:	c4 c1 1d db cd       	vpand  %ymm13,%ymm12,%ymm1
    2f5a:	76 2b                	jbe    2f87 <_Z36four_columns_c_cmp_with_literal_P_nSPmmPPhjmmS1_jmmS1_jmmS1_jmm+0x647>
    2f5c:	c4 e2 7d 17 c9       	vptest %ymm1,%ymm1
    2f61:	74 24                	je     2f87 <_Z36four_columns_c_cmp_with_literal_P_nSPmmPPhjmmS1_jmmS1_jmmS1_jmm+0x647>
    2f63:	4c 8b 7d 90          	mov    -0x70(%rbp),%r15
    2f67:	49 8d 0c 06          	lea    (%r14,%rax,1),%rcx
    2f6b:	c4 c1 7d 6f 47 60    	vmovdqa 0x60(%r15),%ymm0
    2f71:	4c 8b 7b 50          	mov    0x50(%rbx),%r15
    2f75:	4d 8b 7f 18          	mov    0x18(%r15),%r15
    2f79:	c4 c1 7d 64 1c 0f    	vpcmpgtb (%r15,%rcx,1),%ymm0,%ymm3
    2f7f:	c5 f5 db cb          	vpand  %ymm3,%ymm1,%ymm1
    2f83:	c5 ed eb d1          	vpor   %ymm1,%ymm2,%ymm2
    2f87:	c5 bd db c6          	vpand  %ymm6,%ymm8,%ymm0
    2f8b:	89 c1                	mov    %eax,%ecx
    2f8d:	c5 dd db ca          	vpand  %ymm2,%ymm4,%ymm1
    2f91:	c5 fd eb d1          	vpor   %ymm1,%ymm0,%ymm2
    2f95:	48 83 c0 20          	add    $0x20,%rax
    2f99:	c5 7d d7 fa          	vpmovmskb %ymm2,%r15d
    2f9d:	48 83 c2 20          	add    $0x20,%rdx
    2fa1:	48 83 c6 20          	add    $0x20,%rsi
    2fa5:	49 83 c0 20          	add    $0x20,%r8
    2fa9:	49 d3 e7             	shl    %cl,%r15
    2fac:	49 83 c1 20          	add    $0x20,%r9
    2fb0:	4d 0b e7             	or     %r15,%r12
    2fb3:	48 83 f8 40          	cmp    $0x40,%rax
    2fb7:	0f 82 76 fc ff ff    	jb     2c33 <_Z36four_columns_c_cmp_with_literal_P_nSPmmPPhjmmS1_jmmS1_jmmS1_jmm+0x2f3>
    2fbd:	4c 8b 7d b0          	mov    -0x50(%rbp),%r15
    2fc1:	49 83 c6 40          	add    $0x40,%r14
    2fc5:	48 8b 7d 98          	mov    -0x68(%rbp),%rdi
    2fc9:	48 8b 4d d0          	mov    -0x30(%rbp),%rcx
    2fcd:	4c 8b 6d c8          	mov    -0x38(%rbp),%r13
    2fd1:	48 83 c1 40          	add    $0x40,%rcx
    2fd5:	4c 8b 5d c0          	mov    -0x40(%rbp),%r11
    2fd9:	49 83 c5 40          	add    $0x40,%r13
    2fdd:	4c 8b 55 b8          	mov    -0x48(%rbp),%r10
    2fe1:	49 83 c3 40          	add    $0x40,%r11
    2fe5:	4e 89 24 ff          	mov    %r12,(%rdi,%r15,8)
    2fe9:	49 83 c2 40          	add    $0x40,%r10
    2fed:	49 ff c7             	inc    %r15
    2ff0:	4c 3b 75 a8          	cmp    -0x58(%rbp),%r14
    2ff4:	0f 82 00 fc ff ff    	jb     2bfa <_Z36four_columns_c_cmp_with_literal_P_nSPmmPPhjmmS1_jmmS1_jmmS1_jmm+0x2ba>
    2ffa:	48 8b 45 90          	mov    -0x70(%rbp),%rax
    2ffe:	4c 8b 8d 58 ff ff ff 	mov    -0xa8(%rbp),%r9
    3005:	4c 8b 85 50 ff ff ff 	mov    -0xb0(%rbp),%r8
    300c:	48 8b b5 60 ff ff ff 	mov    -0xa0(%rbp),%rsi
    3013:	48 89 c2             	mov    %rax,%rdx
    3016:	48 8b 45 80          	mov    -0x80(%rbp),%rax
    301a:	48 83 c0 1f          	add    $0x1f,%rax
    301e:	48 83 e0 e0          	and    $0xffffffffffffffe0,%rax
    3022:	48 03 e0             	add    %rax,%rsp
    3025:	4c 89 ca             	mov    %r9,%rdx
    3028:	48 8b 85 78 ff ff ff 	mov    -0x88(%rbp),%rax
    302f:	48 83 c0 1f          	add    $0x1f,%rax
    3033:	48 83 e0 e0          	and    $0xffffffffffffffe0,%rax
    3037:	48 03 e0             	add    %rax,%rsp
    303a:	4c 89 c2             	mov    %r8,%rdx
    303d:	48 8b 85 70 ff ff ff 	mov    -0x90(%rbp),%rax
    3044:	48 83 c0 1f          	add    $0x1f,%rax
    3048:	48 83 e0 e0          	and    $0xffffffffffffffe0,%rax
    304c:	48 03 e0             	add    %rax,%rsp
    304f:	48 89 f2             	mov    %rsi,%rdx
    3052:	48 8b 85 68 ff ff ff 	mov    -0x98(%rbp),%rax
    3059:	48 83 c0 1f          	add    $0x1f,%rax
    305d:	48 83 e0 e0          	and    $0xffffffffffffffe0,%rax
    3061:	48 03 e0             	add    %rax,%rsp
    3064:	48 8d 65 e0          	lea    -0x20(%rbp),%rsp
    3068:	41 5f                	pop    %r15
    306a:	41 5e                	pop    %r14
    306c:	41 5d                	pop    %r13
    306e:	41 5c                	pop    %r12
    3070:	5d                   	pop    %rbp
    3071:	48 89 dc             	mov    %rbx,%rsp
    3074:	5b                   	pop    %rbx
    3075:	c3                   	retq   
    3076:	0f 1f 00             	nopl   (%rax)
    3079:	0f 1f 80 00 00 00 00 	nopl   0x0(%rax)

0000000000003080 <_Z35four_columns_c_cmp_with_literal_P_SPmmPPhjmmS1_jmmS1_jmmS1_jmm>:
    3080:	53                   	push   %rbx
    3081:	48 89 e3             	mov    %rsp,%rbx
    3084:	48 83 e4 e0          	and    $0xffffffffffffffe0,%rsp
    3088:	55                   	push   %rbp
    3089:	55                   	push   %rbp
    308a:	48 8b 6b 08          	mov    0x8(%rbx),%rbp
    308e:	48 89 6c 24 08       	mov    %rbp,0x8(%rsp)
    3093:	48 89 e5             	mov    %rsp,%rbp
    3096:	41 54                	push   %r12
    3098:	41 55                	push   %r13
    309a:	41 56                	push   %r14
    309c:	41 57                	push   %r15
    309e:	48 81 ec 90 00 00 00 	sub    $0x90,%rsp
    30a5:	4d 89 c4             	mov    %r8,%r12
    30a8:	4c 89 e0             	mov    %r12,%rax
    30ab:	48 c1 e0 05          	shl    $0x5,%rax
    30af:	48 89 55 88          	mov    %rdx,-0x78(%rbp)
    30b3:	48 89 75 a8          	mov    %rsi,-0x58(%rbp)
    30b7:	48 89 85 68 ff ff ff 	mov    %rax,-0x98(%rbp)
    30be:	48 83 c0 1f          	add    $0x1f,%rax
    30c2:	48 83 e0 e0          	and    $0xffffffffffffffe0,%rax
    30c6:	48 2b e0             	sub    %rax,%rsp
    30c9:	48 89 e0             	mov    %rsp,%rax
    30cc:	48 89 c6             	mov    %rax,%rsi
    30cf:	41 89 cf             	mov    %ecx,%r15d
    30d2:	44 89 c9             	mov    %r9d,%ecx
    30d5:	48 8b 43 20          	mov    0x20(%rbx),%rax
    30d9:	49 d3 e7             	shl    %cl,%r15
    30dc:	48 c1 e0 05          	shl    $0x5,%rax
    30e0:	48 89 85 70 ff ff ff 	mov    %rax,-0x90(%rbp)
    30e7:	48 83 c0 1f          	add    $0x1f,%rax
    30eb:	48 83 e0 e0          	and    $0xffffffffffffffe0,%rax
    30ef:	48 2b e0             	sub    %rax,%rsp
    30f2:	48 89 e0             	mov    %rsp,%rax
    30f5:	49 89 c0             	mov    %rax,%r8
    30f8:	8b 4b 28             	mov    0x28(%rbx),%ecx
    30fb:	44 8b 73 18          	mov    0x18(%rbx),%r14d
    30ff:	48 8b 43 40          	mov    0x40(%rbx),%rax
    3103:	49 d3 e6             	shl    %cl,%r14
    3106:	48 c1 e0 05          	shl    $0x5,%rax
    310a:	48 89 85 78 ff ff ff 	mov    %rax,-0x88(%rbp)
    3111:	48 83 c0 1f          	add    $0x1f,%rax
    3115:	48 83 e0 e0          	and    $0xffffffffffffffe0,%rax
    3119:	48 2b e0             	sub    %rax,%rsp
    311c:	48 89 e0             	mov    %rsp,%rax
    311f:	49 89 c1             	mov    %rax,%r9
    3122:	8b 4b 48             	mov    0x48(%rbx),%ecx
    3125:	44 8b 6b 38          	mov    0x38(%rbx),%r13d
    3129:	48 8b 43 60          	mov    0x60(%rbx),%rax
    312d:	49 d3 e5             	shl    %cl,%r13
    3130:	48 c1 e0 05          	shl    $0x5,%rax
    3134:	48 89 45 80          	mov    %rax,-0x80(%rbp)
    3138:	48 83 c0 1f          	add    $0x1f,%rax
    313c:	48 83 e0 e0          	and    $0xffffffffffffffe0,%rax
    3140:	48 2b e0             	sub    %rax,%rsp
    3143:	48 89 e0             	mov    %rsp,%rax
    3146:	8b 4b 68             	mov    0x68(%rbx),%ecx
    3149:	44 8b 53 58          	mov    0x58(%rbx),%r10d
    314d:	49 d3 e2             	shl    %cl,%r10
    3150:	33 c9                	xor    %ecx,%ecx
    3152:	33 d2                	xor    %edx,%edx
    3154:	4d 85 e4             	test   %r12,%r12
    3157:	76 5f                	jbe    31b8 <_Z35four_columns_c_cmp_with_literal_P_SPmmPPhjmmS1_jmmS1_jmmS1_jmm+0x138>
    3159:	4c 89 85 50 ff ff ff 	mov    %r8,-0xb0(%rbp)
    3160:	4e 8d 1c e5 f8 ff ff 	lea    -0x8(,%r12,8),%r11
    3167:	ff 
    3168:	48 89 7d 98          	mov    %rdi,-0x68(%rbp)
    316c:	48 89 cf             	mov    %rcx,%rdi
    316f:	44 89 d9             	mov    %r11d,%ecx
    3172:	45 89 f8             	mov    %r15d,%r8d
    3175:	41 d3 e8             	shr    %cl,%r8d
    3178:	48 ff c7             	inc    %rdi
    317b:	41 83 f0 80          	xor    $0xffffff80,%r8d
    317f:	49 83 c3 f8          	add    $0xfffffffffffffff8,%r11
    3183:	45 0f b6 c0          	movzbl %r8b,%r8d
    3187:	c4 c1 79 6e c0       	vmovd  %r8d,%xmm0
    318c:	c5 f9 60 c8          	vpunpcklbw %xmm0,%xmm0,%xmm1
    3190:	c5 f1 60 d1          	vpunpcklbw %xmm1,%xmm1,%xmm2
    3194:	c5 f9 70 da 00       	vpshufd $0x0,%xmm2,%xmm3
    3199:	c4 e3 65 18 e3 01    	vinsertf128 $0x1,%xmm3,%ymm3,%ymm4
    319f:	c5 fc 29 24 32       	vmovaps %ymm4,(%rdx,%rsi,1)
    31a4:	48 83 c2 20          	add    $0x20,%rdx
    31a8:	49 3b fc             	cmp    %r12,%rdi
    31ab:	72 c2                	jb     316f <_Z35four_columns_c_cmp_with_literal_P_SPmmPPhjmmS1_jmmS1_jmmS1_jmm+0xef>
    31ad:	4c 8b 85 50 ff ff ff 	mov    -0xb0(%rbp),%r8
    31b4:	48 8b 7d 98          	mov    -0x68(%rbp),%rdi
    31b8:	33 d2                	xor    %edx,%edx
    31ba:	45 33 ff             	xor    %r15d,%r15d
    31bd:	48 83 7b 20 00       	cmpq   $0x0,0x20(%rbx)
    31c2:	76 5e                	jbe    3222 <_Z35four_columns_c_cmp_with_literal_P_SPmmPPhjmmS1_jmmS1_jmmS1_jmm+0x1a2>
    31c4:	48 8b 4b 20          	mov    0x20(%rbx),%rcx
    31c8:	48 89 7d 98          	mov    %rdi,-0x68(%rbp)
    31cc:	48 89 cf             	mov    %rcx,%rdi
    31cf:	4c 89 65 a0          	mov    %r12,-0x60(%rbp)
    31d3:	4c 8d 1c cd f8 ff ff 	lea    -0x8(,%rcx,8),%r11
    31da:	ff 
    31db:	44 89 d9             	mov    %r11d,%ecx
    31de:	45 89 f4             	mov    %r14d,%r12d
    31e1:	41 d3 ec             	shr    %cl,%r12d
    31e4:	48 ff c2             	inc    %rdx
    31e7:	41 83 f4 80          	xor    $0xffffff80,%r12d
    31eb:	49 83 c3 f8          	add    $0xfffffffffffffff8,%r11
    31ef:	45 0f b6 e4          	movzbl %r12b,%r12d
    31f3:	c4 c1 79 6e c4       	vmovd  %r12d,%xmm0
    31f8:	c5 f9 60 c8          	vpunpcklbw %xmm0,%xmm0,%xmm1
    31fc:	c5 f1 60 d1          	vpunpcklbw %xmm1,%xmm1,%xmm2
    3200:	c5 f9 70 da 00       	vpshufd $0x0,%xmm2,%xmm3
    3205:	c4 e3 65 18 e3 01    	vinsertf128 $0x1,%xmm3,%ymm3,%ymm4
    320b:	c4 81 7c 29 24 07    	vmovaps %ymm4,(%r15,%r8,1)
    3211:	49 83 c7 20          	add    $0x20,%r15
    3215:	48 3b d7             	cmp    %rdi,%rdx
    3218:	72 c1                	jb     31db <_Z35four_columns_c_cmp_with_literal_P_SPmmPPhjmmS1_jmmS1_jmmS1_jmm+0x15b>
    321a:	48 8b 7d 98          	mov    -0x68(%rbp),%rdi
    321e:	4c 8b 65 a0          	mov    -0x60(%rbp),%r12
    3222:	33 d2                	xor    %edx,%edx
    3224:	45 33 ff             	xor    %r15d,%r15d
    3227:	48 83 7b 40 00       	cmpq   $0x0,0x40(%rbx)
    322c:	76 56                	jbe    3284 <_Z35four_columns_c_cmp_with_literal_P_SPmmPPhjmmS1_jmmS1_jmmS1_jmm+0x204>
    322e:	48 8b 4b 40          	mov    0x40(%rbx),%rcx
    3232:	49 89 cb             	mov    %rcx,%r11
    3235:	4c 89 65 a0          	mov    %r12,-0x60(%rbp)
    3239:	4c 8d 34 cd f8 ff ff 	lea    -0x8(,%rcx,8),%r14
    3240:	ff 
    3241:	44 89 f1             	mov    %r14d,%ecx
    3244:	45 89 ec             	mov    %r13d,%r12d
    3247:	41 d3 ec             	shr    %cl,%r12d
    324a:	48 ff c2             	inc    %rdx
    324d:	41 83 f4 80          	xor    $0xffffff80,%r12d
    3251:	49 83 c6 f8          	add    $0xfffffffffffffff8,%r14
    3255:	45 0f b6 e4          	movzbl %r12b,%r12d
    3259:	c4 c1 79 6e c4       	vmovd  %r12d,%xmm0
    325e:	c5 f9 60 c8          	vpunpcklbw %xmm0,%xmm0,%xmm1
    3262:	c5 f1 60 d1          	vpunpcklbw %xmm1,%xmm1,%xmm2
    3266:	c5 f9 70 da 00       	vpshufd $0x0,%xmm2,%xmm3
    326b:	c4 e3 65 18 e3 01    	vinsertf128 $0x1,%xmm3,%ymm3,%ymm4
    3271:	c4 81 7c 29 24 0f    	vmovaps %ymm4,(%r15,%r9,1)
    3277:	49 83 c7 20          	add    $0x20,%r15
    327b:	49 3b d3             	cmp    %r11,%rdx
    327e:	72 c1                	jb     3241 <_Z35four_columns_c_cmp_with_literal_P_SPmmPPhjmmS1_jmmS1_jmmS1_jmm+0x1c1>
    3280:	4c 8b 65 a0          	mov    -0x60(%rbp),%r12
    3284:	45 33 f6             	xor    %r14d,%r14d
    3287:	45 33 ff             	xor    %r15d,%r15d
    328a:	48 83 7b 60 00       	cmpq   $0x0,0x60(%rbx)
    328f:	76 4a                	jbe    32db <_Z35four_columns_c_cmp_with_literal_P_SPmmPPhjmmS1_jmmS1_jmmS1_jmm+0x25b>
    3291:	48 8b 4b 60          	mov    0x60(%rbx),%rcx
    3295:	49 89 cd             	mov    %rcx,%r13
    3298:	4c 8d 1c cd f8 ff ff 	lea    -0x8(,%rcx,8),%r11
    329f:	ff 
    32a0:	44 89 d9             	mov    %r11d,%ecx
    32a3:	44 89 d2             	mov    %r10d,%edx
    32a6:	d3 ea                	shr    %cl,%edx
    32a8:	49 ff c6             	inc    %r14
    32ab:	83 f2 80             	xor    $0xffffff80,%edx
    32ae:	49 83 c3 f8          	add    $0xfffffffffffffff8,%r11
    32b2:	0f b6 d2             	movzbl %dl,%edx
    32b5:	c5 f9 6e c2          	vmovd  %edx,%xmm0
    32b9:	c5 f9 60 c8          	vpunpcklbw %xmm0,%xmm0,%xmm1
    32bd:	c5 f1 60 d1          	vpunpcklbw %xmm1,%xmm1,%xmm2
    32c1:	c5 f9 70 da 00       	vpshufd $0x0,%xmm2,%xmm3
    32c6:	c4 e3 65 18 e3 01    	vinsertf128 $0x1,%xmm3,%ymm3,%ymm4
    32cc:	c4 c1 7c 29 24 07    	vmovaps %ymm4,(%r15,%rax,1)
    32d2:	49 83 c7 20          	add    $0x20,%r15
    32d6:	4d 3b f5             	cmp    %r13,%r14
    32d9:	72 c5                	jb     32a0 <_Z35four_columns_c_cmp_with_literal_P_SPmmPPhjmmS1_jmmS1_jmmS1_jmm+0x220>
    32db:	45 33 f6             	xor    %r14d,%r14d
    32de:	33 d2                	xor    %edx,%edx
    32e0:	48 83 7d a8 00       	cmpq   $0x0,-0x58(%rbp)
    32e5:	0f 86 69 04 00 00    	jbe    3754 <_Z35four_columns_c_cmp_with_literal_P_SPmmPPhjmmS1_jmmS1_jmmS1_jmm+0x6d4>
    32eb:	4c 8b 7b 10          	mov    0x10(%rbx),%r15
    32ef:	4c 8b 6b 30          	mov    0x30(%rbx),%r13
    32f3:	48 8b 4b 50          	mov    0x50(%rbx),%rcx
    32f7:	4c 8b 55 88          	mov    -0x78(%rbp),%r10
    32fb:	c5 7d 6f 16          	vmovdqa (%rsi),%ymm10
    32ff:	c4 41 7d 6f 08       	vmovdqa (%r8),%ymm9
    3304:	c4 41 7d 6f 19       	vmovdqa (%r9),%ymm11
    3309:	c5 fd 6f 38          	vmovdqa (%rax),%ymm7
    330d:	4d 8b 12             	mov    (%r10),%r10
    3310:	4d 8b 1f             	mov    (%r15),%r11
    3313:	49 89 d7             	mov    %rdx,%r15
    3316:	4d 8b 6d 00          	mov    0x0(%r13),%r13
    331a:	48 8b 09             	mov    (%rcx),%rcx
    331d:	48 89 45 90          	mov    %rax,-0x70(%rbp)
    3321:	4c 89 8d 58 ff ff ff 	mov    %r9,-0xa8(%rbp)
    3328:	4c 89 85 50 ff ff ff 	mov    %r8,-0xb0(%rbp)
    332f:	48 89 b5 60 ff ff ff 	mov    %rsi,-0xa0(%rbp)
    3336:	4c 89 65 a0          	mov    %r12,-0x60(%rbp)
    333a:	45 33 e4             	xor    %r12d,%r12d
    333d:	4c 89 d2             	mov    %r10,%rdx
    3340:	4c 89 6d c8          	mov    %r13,-0x38(%rbp)
    3344:	33 c0                	xor    %eax,%eax
    3346:	4c 89 5d c0          	mov    %r11,-0x40(%rbp)
    334a:	4c 89 de             	mov    %r11,%rsi
    334d:	4c 89 55 b8          	mov    %r10,-0x48(%rbp)
    3351:	4d 89 e8             	mov    %r13,%r8
    3354:	48 89 7d 98          	mov    %rdi,-0x68(%rbp)
    3358:	49 89 c9             	mov    %rcx,%r9
    335b:	48 89 4d d0          	mov    %rcx,-0x30(%rbp)
    335f:	4c 89 7d b0          	mov    %r15,-0x50(%rbp)
    3363:	48 8b 7b 60          	mov    0x60(%rbx),%rdi
    3367:	4c 8b 53 40          	mov    0x40(%rbx),%r10
    336b:	4c 8b 5b 20          	mov    0x20(%rbx),%r11
    336f:	4c 8b 6d a0          	mov    -0x60(%rbp),%r13
    3373:	0f 18 82 00 04 00 00 	prefetchnta 0x400(%rdx)
    337a:	49 83 fd 01          	cmp    $0x1,%r13
    337e:	0f 18 86 00 04 00 00 	prefetchnta 0x400(%rsi)
    3385:	41 0f 18 80 00 04 00 	prefetchnta 0x400(%r8)
    338c:	00 
    338d:	41 0f 18 81 00 04 00 	prefetchnta 0x400(%r9)
    3394:	00 
    3395:	c5 fe 6f 02          	vmovdqu (%rdx),%ymm0
    3399:	c5 fe 6f 26          	vmovdqu (%rsi),%ymm4
    339d:	c4 c1 7e 6f 10       	vmovdqu (%r8),%ymm2
    33a2:	c4 c1 7e 6f 09       	vmovdqu (%r9),%ymm1
    33a7:	c4 41 7d 64 c2       	vpcmpgtb %ymm10,%ymm0,%ymm8
    33ac:	c5 ad 74 c0          	vpcmpeqb %ymm0,%ymm10,%ymm0
    33b0:	c5 b5 64 f4          	vpcmpgtb %ymm4,%ymm9,%ymm6
    33b4:	c5 b5 74 ec          	vpcmpeqb %ymm4,%ymm9,%ymm5
    33b8:	c4 c1 6d 64 e3       	vpcmpgtb %ymm11,%ymm2,%ymm4
    33bd:	c5 a5 74 da          	vpcmpeqb %ymm2,%ymm11,%ymm3
    33c1:	c5 c5 64 d1          	vpcmpgtb %ymm1,%ymm7,%ymm2
    33c5:	c5 c5 74 c9          	vpcmpeqb %ymm1,%ymm7,%ymm1
    33c9:	0f 86 bd 00 00 00    	jbe    348c <_Z35four_columns_c_cmp_with_literal_P_SPmmPPhjmmS1_jmmS1_jmmS1_jmm+0x40c>
    33cf:	c4 e2 7d 17 c0       	vptest %ymm0,%ymm0
    33d4:	0f 84 b2 00 00 00    	je     348c <_Z35four_columns_c_cmp_with_literal_P_SPmmPPhjmmS1_jmmS1_jmmS1_jmm+0x40c>
    33da:	4c 8b bd 60 ff ff ff 	mov    -0xa0(%rbp),%r15
    33e1:	49 8d 0c 06          	lea    (%r14,%rax,1),%rcx
    33e5:	49 83 fd 02          	cmp    $0x2,%r13
    33e9:	c4 41 7d 6f 77 20    	vmovdqa 0x20(%r15),%ymm14
    33ef:	4c 8b 7d 88          	mov    -0x78(%rbp),%r15
    33f3:	4d 8b 7f 08          	mov    0x8(%r15),%r15
    33f7:	c4 41 7e 6f 3c 0f    	vmovdqu (%r15,%rcx,1),%ymm15
    33fd:	c4 41 05 64 e6       	vpcmpgtb %ymm14,%ymm15,%ymm12
    3402:	c4 41 7d db ec       	vpand  %ymm12,%ymm0,%ymm13
    3407:	c4 41 0d 74 e7       	vpcmpeqb %ymm15,%ymm14,%ymm12
    340c:	c4 41 3d eb c5       	vpor   %ymm13,%ymm8,%ymm8
    3411:	c4 c1 7d db c4       	vpand  %ymm12,%ymm0,%ymm0
    3416:	76 74                	jbe    348c <_Z35four_columns_c_cmp_with_literal_P_SPmmPPhjmmS1_jmmS1_jmmS1_jmm+0x40c>
    3418:	c4 e2 7d 17 c0       	vptest %ymm0,%ymm0
    341d:	74 6d                	je     348c <_Z35four_columns_c_cmp_with_literal_P_SPmmPPhjmmS1_jmmS1_jmmS1_jmm+0x40c>
    341f:	4c 8b bd 60 ff ff ff 	mov    -0xa0(%rbp),%r15
    3426:	49 8d 0c 06          	lea    (%r14,%rax,1),%rcx
    342a:	49 83 fd 03          	cmp    $0x3,%r13
    342e:	c4 41 7d 6f 77 40    	vmovdqa 0x40(%r15),%ymm14
    3434:	4c 8b 7d 88          	mov    -0x78(%rbp),%r15
    3438:	4d 8b 7f 10          	mov    0x10(%r15),%r15
    343c:	c4 41 7e 6f 3c 0f    	vmovdqu (%r15,%rcx,1),%ymm15
    3442:	c4 41 05 64 e6       	vpcmpgtb %ymm14,%ymm15,%ymm12
    3447:	c4 41 7d db ec       	vpand  %ymm12,%ymm0,%ymm13
    344c:	c4 41 0d 74 e7       	vpcmpeqb %ymm15,%ymm14,%ymm12
    3451:	c4 41 3d eb c5       	vpor   %ymm13,%ymm8,%ymm8
    3456:	c4 41 7d db e4       	vpand  %ymm12,%ymm0,%ymm12
    345b:	76 2f                	jbe    348c <_Z35four_columns_c_cmp_with_literal_P_SPmmPPhjmmS1_jmmS1_jmmS1_jmm+0x40c>
    345d:	c4 42 7d 17 e4       	vptest %ymm12,%ymm12
    3462:	74 28                	je     348c <_Z35four_columns_c_cmp_with_literal_P_SPmmPPhjmmS1_jmmS1_jmmS1_jmm+0x40c>
    3464:	4c 8b 7d 88          	mov    -0x78(%rbp),%r15
    3468:	49 8d 0c 06          	lea    (%r14,%rax,1),%rcx
    346c:	4d 8b 7f 18          	mov    0x18(%r15),%r15
    3470:	c4 c1 7e 6f 04 0f    	vmovdqu (%r15,%rcx,1),%ymm0
    3476:	48 8b 8d 60 ff ff ff 	mov    -0xa0(%rbp),%rcx
    347d:	c5 7d 64 69 60       	vpcmpgtb 0x60(%rcx),%ymm0,%ymm13
    3482:	c4 41 1d db e5       	vpand  %ymm13,%ymm12,%ymm12
    3487:	c4 41 3d eb c4       	vpor   %ymm12,%ymm8,%ymm8
    348c:	49 83 fb 01          	cmp    $0x1,%r11
    3490:	0f 86 ba 00 00 00    	jbe    3550 <_Z35four_columns_c_cmp_with_literal_P_SPmmPPhjmmS1_jmmS1_jmmS1_jmm+0x4d0>
    3496:	c4 e2 7d 17 ed       	vptest %ymm5,%ymm5
    349b:	0f 84 af 00 00 00    	je     3550 <_Z35four_columns_c_cmp_with_literal_P_SPmmPPhjmmS1_jmmS1_jmmS1_jmm+0x4d0>
    34a1:	4c 8b bd 50 ff ff ff 	mov    -0xb0(%rbp),%r15
    34a8:	49 8d 0c 06          	lea    (%r14,%rax,1),%rcx
    34ac:	49 83 fb 02          	cmp    $0x2,%r11
    34b0:	c4 41 7d 6f 6f 20    	vmovdqa 0x20(%r15),%ymm13
    34b6:	4c 8b 7b 10          	mov    0x10(%rbx),%r15
    34ba:	4d 8b 7f 08          	mov    0x8(%r15),%r15
    34be:	c4 41 7e 6f 34 0f    	vmovdqu (%r15,%rcx,1),%ymm14
    34c4:	c4 c1 15 64 c6       	vpcmpgtb %ymm14,%ymm13,%ymm0
    34c9:	c5 55 db e0          	vpand  %ymm0,%ymm5,%ymm12
    34cd:	c4 41 15 74 fe       	vpcmpeqb %ymm14,%ymm13,%ymm15
    34d2:	c4 c1 4d eb f4       	vpor   %ymm12,%ymm6,%ymm6
    34d7:	c4 41 55 db f7       	vpand  %ymm15,%ymm5,%ymm14
    34dc:	76 72                	jbe    3550 <_Z35four_columns_c_cmp_with_literal_P_SPmmPPhjmmS1_jmmS1_jmmS1_jmm+0x4d0>
    34de:	c4 42 7d 17 f6       	vptest %ymm14,%ymm14
    34e3:	74 6b                	je     3550 <_Z35four_columns_c_cmp_with_literal_P_SPmmPPhjmmS1_jmmS1_jmmS1_jmm+0x4d0>
    34e5:	4c 8b bd 50 ff ff ff 	mov    -0xb0(%rbp),%r15
    34ec:	49 8d 0c 06          	lea    (%r14,%rax,1),%rcx
    34f0:	49 83 fb 03          	cmp    $0x3,%r11
    34f4:	c4 41 7d 6f 67 40    	vmovdqa 0x40(%r15),%ymm12
    34fa:	4c 8b 7b 10          	mov    0x10(%rbx),%r15
    34fe:	4d 8b 7f 10          	mov    0x10(%r15),%r15
    3502:	c4 41 7e 6f 2c 0f    	vmovdqu (%r15,%rcx,1),%ymm13
    3508:	c4 c1 1d 64 c5       	vpcmpgtb %ymm13,%ymm12,%ymm0
    350d:	c5 8d db e8          	vpand  %ymm0,%ymm14,%ymm5
    3511:	c4 41 1d 74 fd       	vpcmpeqb %ymm13,%ymm12,%ymm15
    3516:	c5 cd eb f5          	vpor   %ymm5,%ymm6,%ymm6
    351a:	c4 c1 0d db ef       	vpand  %ymm15,%ymm14,%ymm5
    351f:	76 2f                	jbe    3550 <_Z35four_columns_c_cmp_with_literal_P_SPmmPPhjmmS1_jmmS1_jmmS1_jmm+0x4d0>
    3521:	c4 e2 7d 17 ed       	vptest %ymm5,%ymm5
    3526:	74 28                	je     3550 <_Z35four_columns_c_cmp_with_literal_P_SPmmPPhjmmS1_jmmS1_jmmS1_jmm+0x4d0>
    3528:	4c 8b bd 50 ff ff ff 	mov    -0xb0(%rbp),%r15
    352f:	49 8d 0c 06          	lea    (%r14,%rax,1),%rcx
    3533:	c4 c1 7d 6f 47 60    	vmovdqa 0x60(%r15),%ymm0
    3539:	4c 8b 7b 10          	mov    0x10(%rbx),%r15
    353d:	4d 8b 7f 18          	mov    0x18(%r15),%r15
    3541:	c4 41 7d 64 24 0f    	vpcmpgtb (%r15,%rcx,1),%ymm0,%ymm12
    3547:	c4 c1 55 db ec       	vpand  %ymm12,%ymm5,%ymm5
    354c:	c5 cd eb f5          	vpor   %ymm5,%ymm6,%ymm6
    3550:	49 83 fa 01          	cmp    $0x1,%r10
    3554:	0f 86 b6 00 00 00    	jbe    3610 <_Z35four_columns_c_cmp_with_literal_P_SPmmPPhjmmS1_jmmS1_jmmS1_jmm+0x590>
    355a:	c4 e2 7d 17 db       	vptest %ymm3,%ymm3
    355f:	0f 84 ab 00 00 00    	je     3610 <_Z35four_columns_c_cmp_with_literal_P_SPmmPPhjmmS1_jmmS1_jmmS1_jmm+0x590>
    3565:	4c 8b bd 58 ff ff ff 	mov    -0xa8(%rbp),%r15
    356c:	49 8d 0c 06          	lea    (%r14,%rax,1),%rcx
    3570:	49 83 fa 02          	cmp    $0x2,%r10
    3574:	c4 41 7d 6f 67 20    	vmovdqa 0x20(%r15),%ymm12
    357a:	4c 8b 7b 30          	mov    0x30(%rbx),%r15
    357e:	4d 8b 7f 08          	mov    0x8(%r15),%r15
    3582:	c4 41 7e 6f 2c 0f    	vmovdqu (%r15,%rcx,1),%ymm13
    3588:	c4 c1 15 64 c4       	vpcmpgtb %ymm12,%ymm13,%ymm0
    358d:	c5 e5 db e8          	vpand  %ymm0,%ymm3,%ymm5
    3591:	c4 41 1d 74 f5       	vpcmpeqb %ymm13,%ymm12,%ymm14
    3596:	c5 dd eb e5          	vpor   %ymm5,%ymm4,%ymm4
    359a:	c4 41 65 db ee       	vpand  %ymm14,%ymm3,%ymm13
    359f:	76 6f                	jbe    3610 <_Z35four_columns_c_cmp_with_literal_P_SPmmPPhjmmS1_jmmS1_jmmS1_jmm+0x590>
    35a1:	c4 42 7d 17 ed       	vptest %ymm13,%ymm13
    35a6:	74 68                	je     3610 <_Z35four_columns_c_cmp_with_literal_P_SPmmPPhjmmS1_jmmS1_jmmS1_jmm+0x590>
    35a8:	4c 8b bd 58 ff ff ff 	mov    -0xa8(%rbp),%r15
    35af:	49 8d 0c 06          	lea    (%r14,%rax,1),%rcx
    35b3:	49 83 fa 03          	cmp    $0x3,%r10
    35b7:	c4 c1 7d 6f 6f 40    	vmovdqa 0x40(%r15),%ymm5
    35bd:	4c 8b 7b 30          	mov    0x30(%rbx),%r15
    35c1:	4d 8b 7f 10          	mov    0x10(%r15),%r15
    35c5:	c4 41 7e 6f 24 0f    	vmovdqu (%r15,%rcx,1),%ymm12
    35cb:	c5 9d 64 c5          	vpcmpgtb %ymm5,%ymm12,%ymm0
    35cf:	c5 95 db d8          	vpand  %ymm0,%ymm13,%ymm3
    35d3:	c4 41 55 74 f4       	vpcmpeqb %ymm12,%ymm5,%ymm14
    35d8:	c5 dd eb e3          	vpor   %ymm3,%ymm4,%ymm4
    35dc:	c4 c1 15 db de       	vpand  %ymm14,%ymm13,%ymm3
    35e1:	76 2d                	jbe    3610 <_Z35four_columns_c_cmp_with_literal_P_SPmmPPhjmmS1_jmmS1_jmmS1_jmm+0x590>
    35e3:	c4 e2 7d 17 db       	vptest %ymm3,%ymm3
    35e8:	74 26                	je     3610 <_Z35four_columns_c_cmp_with_literal_P_SPmmPPhjmmS1_jmmS1_jmmS1_jmm+0x590>
    35ea:	4c 8b 7b 30          	mov    0x30(%rbx),%r15
    35ee:	49 8d 0c 06          	lea    (%r14,%rax,1),%rcx
    35f2:	4d 8b 7f 18          	mov    0x18(%r15),%r15
    35f6:	c4 c1 7e 6f 04 0f    	vmovdqu (%r15,%rcx,1),%ymm0
    35fc:	48 8b 8d 58 ff ff ff 	mov    -0xa8(%rbp),%rcx
    3603:	c5 fd 64 69 60       	vpcmpgtb 0x60(%rcx),%ymm0,%ymm5
    3608:	c5 e5 db dd          	vpand  %ymm5,%ymm3,%ymm3
    360c:	c5 dd eb e3          	vpor   %ymm3,%ymm4,%ymm4
    3610:	48 83 ff 01          	cmp    $0x1,%rdi
    3614:	0f 86 ad 00 00 00    	jbe    36c7 <_Z35four_columns_c_cmp_with_literal_P_SPmmPPhjmmS1_jmmS1_jmmS1_jmm+0x647>
    361a:	c4 e2 7d 17 c9       	vptest %ymm1,%ymm1
    361f:	0f 84 a2 00 00 00    	je     36c7 <_Z35four_columns_c_cmp_with_literal_P_SPmmPPhjmmS1_jmmS1_jmmS1_jmm+0x647>
    3625:	4c 8b 7d 90          	mov    -0x70(%rbp),%r15
    3629:	49 8d 0c 06          	lea    (%r14,%rax,1),%rcx
    362d:	48 83 ff 02          	cmp    $0x2,%rdi
    3631:	c4 c1 7d 6f 6f 20    	vmovdqa 0x20(%r15),%ymm5
    3637:	4c 8b 7b 50          	mov    0x50(%rbx),%r15
    363b:	4d 8b 7f 08          	mov    0x8(%r15),%r15
    363f:	c4 41 7e 6f 24 0f    	vmovdqu (%r15,%rcx,1),%ymm12
    3645:	c4 c1 55 64 c4       	vpcmpgtb %ymm12,%ymm5,%ymm0
    364a:	c5 f5 db d8          	vpand  %ymm0,%ymm1,%ymm3
    364e:	c4 41 55 74 ec       	vpcmpeqb %ymm12,%ymm5,%ymm13
    3653:	c5 ed eb d3          	vpor   %ymm3,%ymm2,%ymm2
    3657:	c4 41 75 db e5       	vpand  %ymm13,%ymm1,%ymm12
    365c:	76 69                	jbe    36c7 <_Z35four_columns_c_cmp_with_literal_P_SPmmPPhjmmS1_jmmS1_jmmS1_jmm+0x647>
    365e:	c4 42 7d 17 e4       	vptest %ymm12,%ymm12
    3663:	74 62                	je     36c7 <_Z35four_columns_c_cmp_with_literal_P_SPmmPPhjmmS1_jmmS1_jmmS1_jmm+0x647>
    3665:	4c 8b 7d 90          	mov    -0x70(%rbp),%r15
    3669:	49 8d 0c 06          	lea    (%r14,%rax,1),%rcx
    366d:	48 83 ff 03          	cmp    $0x3,%rdi
    3671:	c4 c1 7d 6f 5f 40    	vmovdqa 0x40(%r15),%ymm3
    3677:	4c 8b 7b 50          	mov    0x50(%rbx),%r15
    367b:	4d 8b 7f 10          	mov    0x10(%r15),%r15
    367f:	c4 c1 7e 6f 2c 0f    	vmovdqu (%r15,%rcx,1),%ymm5
    3685:	c5 e5 64 c5          	vpcmpgtb %ymm5,%ymm3,%ymm0
    3689:	c5 9d db c8          	vpand  %ymm0,%ymm12,%ymm1
    368d:	c5 65 74 ed          	vpcmpeqb %ymm5,%ymm3,%ymm13
    3691:	c5 ed eb d1          	vpor   %ymm1,%ymm2,%ymm2
    3695:	c4 c1 1d db cd       	vpand  %ymm13,%ymm12,%ymm1
    369a:	76 2b                	jbe    36c7 <_Z35four_columns_c_cmp_with_literal_P_SPmmPPhjmmS1_jmmS1_jmmS1_jmm+0x647>
    369c:	c4 e2 7d 17 c9       	vptest %ymm1,%ymm1
    36a1:	74 24                	je     36c7 <_Z35four_columns_c_cmp_with_literal_P_SPmmPPhjmmS1_jmmS1_jmmS1_jmm+0x647>
    36a3:	4c 8b 7d 90          	mov    -0x70(%rbp),%r15
    36a7:	49 8d 0c 06          	lea    (%r14,%rax,1),%rcx
    36ab:	c4 c1 7d 6f 47 60    	vmovdqa 0x60(%r15),%ymm0
    36b1:	4c 8b 7b 50          	mov    0x50(%rbx),%r15
    36b5:	4d 8b 7f 18          	mov    0x18(%r15),%r15
    36b9:	c4 c1 7d 64 1c 0f    	vpcmpgtb (%r15,%rcx,1),%ymm0,%ymm3
    36bf:	c5 f5 db cb          	vpand  %ymm3,%ymm1,%ymm1
    36c3:	c5 ed eb d1          	vpor   %ymm1,%ymm2,%ymm2
    36c7:	c5 bd db c6          	vpand  %ymm6,%ymm8,%ymm0
    36cb:	89 c1                	mov    %eax,%ecx
    36cd:	c5 dd db ca          	vpand  %ymm2,%ymm4,%ymm1
    36d1:	c5 fd eb d1          	vpor   %ymm1,%ymm0,%ymm2
    36d5:	48 83 c0 20          	add    $0x20,%rax
    36d9:	c5 7d d7 fa          	vpmovmskb %ymm2,%r15d
    36dd:	48 83 c2 20          	add    $0x20,%rdx
    36e1:	48 83 c6 20          	add    $0x20,%rsi
    36e5:	49 83 c0 20          	add    $0x20,%r8
    36e9:	49 d3 e7             	shl    %cl,%r15
    36ec:	49 83 c1 20          	add    $0x20,%r9
    36f0:	4d 0b e7             	or     %r15,%r12
    36f3:	48 83 f8 40          	cmp    $0x40,%rax
    36f7:	0f 82 76 fc ff ff    	jb     3373 <_Z35four_columns_c_cmp_with_literal_P_SPmmPPhjmmS1_jmmS1_jmmS1_jmm+0x2f3>
    36fd:	4c 8b 7d b0          	mov    -0x50(%rbp),%r15
    3701:	49 83 c6 40          	add    $0x40,%r14
    3705:	48 8b 7d 98          	mov    -0x68(%rbp),%rdi
    3709:	48 8b 4d d0          	mov    -0x30(%rbp),%rcx
    370d:	4c 8b 6d c8          	mov    -0x38(%rbp),%r13
    3711:	48 83 c1 40          	add    $0x40,%rcx
    3715:	4c 8b 5d c0          	mov    -0x40(%rbp),%r11
    3719:	49 83 c5 40          	add    $0x40,%r13
    371d:	4c 8b 55 b8          	mov    -0x48(%rbp),%r10
    3721:	49 83 c3 40          	add    $0x40,%r11
    3725:	4e 0f c3 24 ff       	movnti %r12,(%rdi,%r15,8)
    372a:	49 83 c2 40          	add    $0x40,%r10
    372e:	49 ff c7             	inc    %r15
    3731:	4c 3b 75 a8          	cmp    -0x58(%rbp),%r14
    3735:	0f 82 ff fb ff ff    	jb     333a <_Z35four_columns_c_cmp_with_literal_P_SPmmPPhjmmS1_jmmS1_jmmS1_jmm+0x2ba>
    373b:	48 8b 45 90          	mov    -0x70(%rbp),%rax
    373f:	4c 8b 8d 58 ff ff ff 	mov    -0xa8(%rbp),%r9
    3746:	4c 8b 85 50 ff ff ff 	mov    -0xb0(%rbp),%r8
    374d:	48 8b b5 60 ff ff ff 	mov    -0xa0(%rbp),%rsi
    3754:	48 89 c2             	mov    %rax,%rdx
    3757:	48 8b 45 80          	mov    -0x80(%rbp),%rax
    375b:	48 83 c0 1f          	add    $0x1f,%rax
    375f:	48 83 e0 e0          	and    $0xffffffffffffffe0,%rax
    3763:	48 03 e0             	add    %rax,%rsp
    3766:	4c 89 ca             	mov    %r9,%rdx
    3769:	48 8b 85 78 ff ff ff 	mov    -0x88(%rbp),%rax
    3770:	48 83 c0 1f          	add    $0x1f,%rax
    3774:	48 83 e0 e0          	and    $0xffffffffffffffe0,%rax
    3778:	48 03 e0             	add    %rax,%rsp
    377b:	4c 89 c2             	mov    %r8,%rdx
    377e:	48 8b 85 70 ff ff ff 	mov    -0x90(%rbp),%rax
    3785:	48 83 c0 1f          	add    $0x1f,%rax
    3789:	48 83 e0 e0          	and    $0xffffffffffffffe0,%rax
    378d:	48 03 e0             	add    %rax,%rsp
    3790:	48 89 f2             	mov    %rsi,%rdx
    3793:	48 8b 85 68 ff ff ff 	mov    -0x98(%rbp),%rax
    379a:	48 83 c0 1f          	add    $0x1f,%rax
    379e:	48 83 e0 e0          	and    $0xffffffffffffffe0,%rax
    37a2:	48 03 e0             	add    %rax,%rsp
    37a5:	48 8d 65 e0          	lea    -0x20(%rbp),%rsp
    37a9:	41 5f                	pop    %r15
    37ab:	41 5e                	pop    %r14
    37ad:	41 5d                	pop    %r13
    37af:	41 5c                	pop    %r12
    37b1:	5d                   	pop    %rbp
    37b2:	48 89 dc             	mov    %rbx,%rsp
    37b5:	5b                   	pop    %rbx
    37b6:	c3                   	retq   
    37b7:	66 0f 1f 84 00 00 00 	nopw   0x0(%rax,%rax,1)
    37be:	00 00 

00000000000037c0 <__sti__$E>:
    37c0:	56                   	push   %rsi
    37c1:	48 8d 3d 00 00 00 00 	lea    0x0(%rip),%rdi        # 37c8 <__sti__$E+0x8>
    37c8:	e8 00 00 00 00       	callq  37cd <__sti__$E+0xd>
    37cd:	48 8d 35 00 00 00 00 	lea    0x0(%rip),%rsi        # 37d4 <__sti__$E+0x14>
    37d4:	48 8d 15 00 00 00 00 	lea    0x0(%rip),%rdx        # 37db <__sti__$E+0x1b>
    37db:	48 8b 3d 00 00 00 00 	mov    0x0(%rip),%rdi        # 37e2 <__sti__$E+0x22>
    37e2:	48 83 c4 08          	add    $0x8,%rsp
    37e6:	e9 00 00 00 00       	jmpq   37eb <__sti__$E+0x2b>
    37eb:	0f 1f 44 00 00       	nopl   0x0(%rax,%rax,1)

Disassembly of section .ctors:

0000000000000000 <.ctors>:
	...

Disassembly of section .gcc_except_table:

0000000000000000 <_Z35four_columns_cmp_with_literal_nP_nSPmmPPhjmmS1_jmmS1_jmmS1_jmm$$LSDA>:
   0:	ff 9b 06 01 00 00    	lcallq *0x106(%rbx)
   6:	00 00                	add    %al,(%rax)
   8:	00 00                	add    %al,(%rax)
	...

000000000000000c <_Z34four_columns_cmp_with_literal_nP_SPmmPPhjmmS1_jmmS1_jmmS1_jmm$$LSDA>:
   c:	ff 9b 06 01 00 00    	lcallq *0x106(%rbx)
  12:	00 00                	add    %al,(%rax)
  14:	00 00                	add    %al,(%rax)
	...

0000000000000018 <_Z34four_columns_cmp_with_literal_P_nSPmmPPhjmmS1_jmmS1_jmmS1_jmm$$LSDA>:
  18:	ff 9b 06 01 00 00    	lcallq *0x106(%rbx)
  1e:	00 00                	add    %al,(%rax)
  20:	00 00                	add    %al,(%rax)
	...

0000000000000024 <_Z33four_columns_cmp_with_literal_P_SPmmPPhjmmS1_jmmS1_jmmS1_jmm$$LSDA>:
  24:	ff 9b 06 01 00 00    	lcallq *0x106(%rbx)
  2a:	00 00                	add    %al,(%rax)
  2c:	00 00                	add    %al,(%rax)
	...

0000000000000030 <_Z37four_columns_c_cmp_with_literal_nP_nSPmmPPhjmmS1_jmmS1_jmmS1_jmm$$LSDA>:
  30:	ff 9b 06 01 00 00    	lcallq *0x106(%rbx)
  36:	00 00                	add    %al,(%rax)
  38:	00 00                	add    %al,(%rax)
	...

000000000000003c <_Z36four_columns_c_cmp_with_literal_nP_SPmmPPhjmmS1_jmmS1_jmmS1_jmm$$LSDA>:
  3c:	ff 9b 06 01 00 00    	lcallq *0x106(%rbx)
  42:	00 00                	add    %al,(%rax)
  44:	00 00                	add    %al,(%rax)
	...

0000000000000048 <_Z36four_columns_c_cmp_with_literal_P_nSPmmPPhjmmS1_jmmS1_jmmS1_jmm$$LSDA>:
  48:	ff 9b 06 01 00 00    	lcallq *0x106(%rbx)
  4e:	00 00                	add    %al,(%rax)
  50:	00 00                	add    %al,(%rax)
	...

0000000000000054 <_Z35four_columns_c_cmp_with_literal_P_SPmmPPhjmmS1_jmmS1_jmmS1_jmm$$LSDA>:
  54:	ff 9b 06 01 00 00    	lcallq *0x106(%rbx)
  5a:	00 00                	add    %al,(%rax)
  5c:	00 00                	add    %al,(%rax)
	...

Disassembly of section .eh_frame:

0000000000000000 <.eh_frame>:
   0:	1c 00                	sbb    $0x0,%al
   2:	00 00                	add    %al,(%rax)
   4:	00 00                	add    %al,(%rax)
   6:	00 00                	add    %al,(%rax)
   8:	01 7a 50             	add    %edi,0x50(%rdx)
   b:	4c 52                	rex.WR push %rdx
   d:	00 01                	add    %al,(%rcx)
   f:	78 10                	js     21 <.eh_frame+0x21>
  11:	07                   	(bad)  
  12:	9b                   	fwait
  13:	00 00                	add    %al,(%rax)
  15:	00 00                	add    %al,(%rax)
  17:	1b 1b                	sbb    (%rbx),%ebx
  19:	0c 07                	or     $0x7,%al
  1b:	08 90 01 00 00 4c    	or     %dl,0x4c000001(%rax)
  21:	00 00                	add    %al,(%rax)
  23:	00 24 00             	add    %ah,(%rax,%rax,1)
  26:	00 00                	add    %al,(%rax)
  28:	00 00                	add    %al,(%rax)
  2a:	00 00                	add    %al,(%rax)
  2c:	b0 06                	mov    $0x6,%al
  2e:	00 00                	add    %al,(%rax)
  30:	04 00                	add    $0x0,%al
  32:	00 00                	add    %al,(%rax)
  34:	00 41 0e             	add    %al,0xe(%rcx)
  37:	10 43 0c             	adc    %al,0xc(%rbx)
  3a:	03 10                	add    (%rax),%edx
  3c:	83 02 52             	addl   $0x52,(%rdx)
  3f:	10 06                	adc    %al,(%rsi)
  41:	02 76 00             	add    0x0(%rsi),%dh
  44:	4c 10 0c 02          	rex.WR adc %r9b,(%rdx,%rax,1)
  48:	76 78                	jbe    c2 <.eh_frame+0xc2>
  4a:	10 0d 02 76 70 10    	adc    %cl,0x10707602(%rip)        # 10707652 <__sti__$E+0x10703e92>
  50:	0e                   	(bad)  
  51:	02 76 68             	add    0x68(%rsi),%dh
  54:	10 0f                	adc    %cl,(%rdi)
  56:	02 76 60             	add    0x60(%rsi),%dh
  59:	03 71 06             	add    0x6(%rcx),%esi
  5c:	cf                   	iret   
  5d:	42 ce                	rex.X (bad) 
  5f:	42 cd 42             	rex.X int $0x42
  62:	cc                   	int3   
  63:	43 c6 44 0c 07 08    	movb   $0x8,0x7(%r12,%r9,1)
  69:	c3                   	retq   
  6a:	00 00                	add    %al,(%rax)
  6c:	00 00                	add    %al,(%rax)
  6e:	00 00                	add    %al,(%rax)
  70:	4c 00 00             	rex.WR add %r8b,(%rax)
  73:	00 74 00 00          	add    %dh,0x0(%rax,%rax,1)
  77:	00 00                	add    %al,(%rax)
  79:	00 00                	add    %al,(%rax)
  7b:	00 b0 06 00 00 04    	add    %dh,0x4000006(%rax)
  81:	00 00                	add    %al,(%rax)
  83:	00 00                	add    %al,(%rax)
  85:	41 0e                	rex.B (bad) 
  87:	10 43 0c             	adc    %al,0xc(%rbx)
  8a:	03 10                	add    (%rax),%edx
  8c:	83 02 52             	addl   $0x52,(%rdx)
  8f:	10 06                	adc    %al,(%rsi)
  91:	02 76 00             	add    0x0(%rsi),%dh
  94:	4c 10 0c 02          	rex.WR adc %r9b,(%rdx,%rax,1)
  98:	76 78                	jbe    112 <.eh_frame+0x112>
  9a:	10 0d 02 76 70 10    	adc    %cl,0x10707602(%rip)        # 107076a2 <__sti__$E+0x10703ee2>
  a0:	0e                   	(bad)  
  a1:	02 76 68             	add    0x68(%rsi),%dh
  a4:	10 0f                	adc    %cl,(%rdi)
  a6:	02 76 60             	add    0x60(%rsi),%dh
  a9:	03 72 06             	add    0x6(%rdx),%esi
  ac:	cf                   	iret   
  ad:	42 ce                	rex.X (bad) 
  af:	42 cd 42             	rex.X int $0x42
  b2:	cc                   	int3   
  b3:	43 c6 44 0c 07 08    	movb   $0x8,0x7(%r12,%r9,1)
  b9:	c3                   	retq   
  ba:	00 00                	add    %al,(%rax)
  bc:	00 00                	add    %al,(%rax)
  be:	00 00                	add    %al,(%rax)
  c0:	4c 00 00             	rex.WR add %r8b,(%rax)
  c3:	00 c4                	add    %al,%ah
  c5:	00 00                	add    %al,(%rax)
  c7:	00 00                	add    %al,(%rax)
  c9:	00 00                	add    %al,(%rax)
  cb:	00 40 07             	add    %al,0x7(%rax)
  ce:	00 00                	add    %al,(%rax)
  d0:	04 00                	add    $0x0,%al
  d2:	00 00                	add    %al,(%rax)
  d4:	00 41 0e             	add    %al,0xe(%rcx)
  d7:	10 43 0c             	adc    %al,0xc(%rbx)
  da:	03 10                	add    (%rax),%edx
  dc:	83 02 52             	addl   $0x52,(%rdx)
  df:	10 06                	adc    %al,(%rsi)
  e1:	02 76 00             	add    0x0(%rsi),%dh
  e4:	4f 10 0c 02          	rex.WRXB adc %r9b,(%r10,%r8,1)
  e8:	76 78                	jbe    162 <.eh_frame+0x162>
  ea:	10 0d 02 76 70 10    	adc    %cl,0x10707602(%rip)        # 107076f2 <__sti__$E+0x10703f32>
  f0:	0e                   	(bad)  
  f1:	02 76 68             	add    0x68(%rsi),%dh
  f4:	10 0f                	adc    %cl,(%rdi)
  f6:	02 76 60             	add    0x60(%rsi),%dh
  f9:	03 03                	add    (%rbx),%eax
  fb:	07                   	(bad)  
  fc:	cf                   	iret   
  fd:	42 ce                	rex.X (bad) 
  ff:	42 cd 42             	rex.X int $0x42
 102:	cc                   	int3   
 103:	43 c6 44 0c 07 08    	movb   $0x8,0x7(%r12,%r9,1)
 109:	c3                   	retq   
 10a:	00 00                	add    %al,(%rax)
 10c:	00 00                	add    %al,(%rax)
 10e:	00 00                	add    %al,(%rax)
 110:	4c 00 00             	rex.WR add %r8b,(%rax)
 113:	00 14 01             	add    %dl,(%rcx,%rax,1)
 116:	00 00                	add    %al,(%rax)
 118:	00 00                	add    %al,(%rax)
 11a:	00 00                	add    %al,(%rax)
 11c:	40 07                	rex (bad) 
 11e:	00 00                	add    %al,(%rax)
 120:	04 00                	add    $0x0,%al
 122:	00 00                	add    %al,(%rax)
 124:	00 41 0e             	add    %al,0xe(%rcx)
 127:	10 43 0c             	adc    %al,0xc(%rbx)
 12a:	03 10                	add    (%rax),%edx
 12c:	83 02 52             	addl   $0x52,(%rdx)
 12f:	10 06                	adc    %al,(%rsi)
 131:	02 76 00             	add    0x0(%rsi),%dh
 134:	4f 10 0c 02          	rex.WRXB adc %r9b,(%r10,%r8,1)
 138:	76 78                	jbe    1b2 <.eh_frame+0x1b2>
 13a:	10 0d 02 76 70 10    	adc    %cl,0x10707602(%rip)        # 10707742 <__sti__$E+0x10703f82>
 140:	0e                   	(bad)  
 141:	02 76 68             	add    0x68(%rsi),%dh
 144:	10 0f                	adc    %cl,(%rdi)
 146:	02 76 60             	add    0x60(%rsi),%dh
 149:	03 04 07             	add    (%rdi,%rax,1),%eax
 14c:	cf                   	iret   
 14d:	42 ce                	rex.X (bad) 
 14f:	42 cd 42             	rex.X int $0x42
 152:	cc                   	int3   
 153:	43 c6 44 0c 07 08    	movb   $0x8,0x7(%r12,%r9,1)
 159:	c3                   	retq   
 15a:	00 00                	add    %al,(%rax)
 15c:	00 00                	add    %al,(%rax)
 15e:	00 00                	add    %al,(%rax)
 160:	4c 00 00             	rex.WR add %r8b,(%rax)
 163:	00 64 01 00          	add    %ah,0x0(%rcx,%rax,1)
 167:	00 00                	add    %al,(%rax)
 169:	00 00                	add    %al,(%rax)
 16b:	00 b0 06 00 00 04    	add    %dh,0x4000006(%rax)
 171:	00 00                	add    %al,(%rax)
 173:	00 00                	add    %al,(%rax)
 175:	41 0e                	rex.B (bad) 
 177:	10 43 0c             	adc    %al,0xc(%rbx)
 17a:	03 10                	add    (%rax),%edx
 17c:	83 02 52             	addl   $0x52,(%rdx)
 17f:	10 06                	adc    %al,(%rsi)
 181:	02 76 00             	add    0x0(%rsi),%dh
 184:	4c 10 0c 02          	rex.WR adc %r9b,(%rdx,%rax,1)
 188:	76 78                	jbe    202 <.eh_frame+0x202>
 18a:	10 0d 02 76 70 10    	adc    %cl,0x10707602(%rip)        # 10707792 <__sti__$E+0x10703fd2>
 190:	0e                   	(bad)  
 191:	02 76 68             	add    0x68(%rsi),%dh
 194:	10 0f                	adc    %cl,(%rdi)
 196:	02 76 60             	add    0x60(%rsi),%dh
 199:	03 71 06             	add    0x6(%rcx),%esi
 19c:	cf                   	iret   
 19d:	42 ce                	rex.X (bad) 
 19f:	42 cd 42             	rex.X int $0x42
 1a2:	cc                   	int3   
 1a3:	43 c6 44 0c 07 08    	movb   $0x8,0x7(%r12,%r9,1)
 1a9:	c3                   	retq   
 1aa:	00 00                	add    %al,(%rax)
 1ac:	00 00                	add    %al,(%rax)
 1ae:	00 00                	add    %al,(%rax)
 1b0:	4c 00 00             	rex.WR add %r8b,(%rax)
 1b3:	00 b4 01 00 00 00 00 	add    %dh,0x0(%rcx,%rax,1)
 1ba:	00 00                	add    %al,(%rax)
 1bc:	b0 06                	mov    $0x6,%al
 1be:	00 00                	add    %al,(%rax)
 1c0:	04 00                	add    $0x0,%al
 1c2:	00 00                	add    %al,(%rax)
 1c4:	00 41 0e             	add    %al,0xe(%rcx)
 1c7:	10 43 0c             	adc    %al,0xc(%rbx)
 1ca:	03 10                	add    (%rax),%edx
 1cc:	83 02 52             	addl   $0x52,(%rdx)
 1cf:	10 06                	adc    %al,(%rsi)
 1d1:	02 76 00             	add    0x0(%rsi),%dh
 1d4:	4c 10 0c 02          	rex.WR adc %r9b,(%rdx,%rax,1)
 1d8:	76 78                	jbe    252 <.eh_frame+0x252>
 1da:	10 0d 02 76 70 10    	adc    %cl,0x10707602(%rip)        # 107077e2 <__sti__$E+0x10704022>
 1e0:	0e                   	(bad)  
 1e1:	02 76 68             	add    0x68(%rsi),%dh
 1e4:	10 0f                	adc    %cl,(%rdi)
 1e6:	02 76 60             	add    0x60(%rsi),%dh
 1e9:	03 72 06             	add    0x6(%rdx),%esi
 1ec:	cf                   	iret   
 1ed:	42 ce                	rex.X (bad) 
 1ef:	42 cd 42             	rex.X int $0x42
 1f2:	cc                   	int3   
 1f3:	43 c6 44 0c 07 08    	movb   $0x8,0x7(%r12,%r9,1)
 1f9:	c3                   	retq   
 1fa:	00 00                	add    %al,(%rax)
 1fc:	00 00                	add    %al,(%rax)
 1fe:	00 00                	add    %al,(%rax)
 200:	4c 00 00             	rex.WR add %r8b,(%rax)
 203:	00 04 02             	add    %al,(%rdx,%rax,1)
 206:	00 00                	add    %al,(%rax)
 208:	00 00                	add    %al,(%rax)
 20a:	00 00                	add    %al,(%rax)
 20c:	40 07                	rex (bad) 
 20e:	00 00                	add    %al,(%rax)
 210:	04 00                	add    $0x0,%al
 212:	00 00                	add    %al,(%rax)
 214:	00 41 0e             	add    %al,0xe(%rcx)
 217:	10 43 0c             	adc    %al,0xc(%rbx)
 21a:	03 10                	add    (%rax),%edx
 21c:	83 02 52             	addl   $0x52,(%rdx)
 21f:	10 06                	adc    %al,(%rsi)
 221:	02 76 00             	add    0x0(%rsi),%dh
 224:	4f 10 0c 02          	rex.WRXB adc %r9b,(%r10,%r8,1)
 228:	76 78                	jbe    2a2 <.eh_frame+0x2a2>
 22a:	10 0d 02 76 70 10    	adc    %cl,0x10707602(%rip)        # 10707832 <__sti__$E+0x10704072>
 230:	0e                   	(bad)  
 231:	02 76 68             	add    0x68(%rsi),%dh
 234:	10 0f                	adc    %cl,(%rdi)
 236:	02 76 60             	add    0x60(%rsi),%dh
 239:	03 03                	add    (%rbx),%eax
 23b:	07                   	(bad)  
 23c:	cf                   	iret   
 23d:	42 ce                	rex.X (bad) 
 23f:	42 cd 42             	rex.X int $0x42
 242:	cc                   	int3   
 243:	43 c6 44 0c 07 08    	movb   $0x8,0x7(%r12,%r9,1)
 249:	c3                   	retq   
 24a:	00 00                	add    %al,(%rax)
 24c:	00 00                	add    %al,(%rax)
 24e:	00 00                	add    %al,(%rax)
 250:	4c 00 00             	rex.WR add %r8b,(%rax)
 253:	00 54 02 00          	add    %dl,0x0(%rdx,%rax,1)
 257:	00 00                	add    %al,(%rax)
 259:	00 00                	add    %al,(%rax)
 25b:	00 40 07             	add    %al,0x7(%rax)
 25e:	00 00                	add    %al,(%rax)
 260:	04 00                	add    $0x0,%al
 262:	00 00                	add    %al,(%rax)
 264:	00 41 0e             	add    %al,0xe(%rcx)
 267:	10 43 0c             	adc    %al,0xc(%rbx)
 26a:	03 10                	add    (%rax),%edx
 26c:	83 02 52             	addl   $0x52,(%rdx)
 26f:	10 06                	adc    %al,(%rsi)
 271:	02 76 00             	add    0x0(%rsi),%dh
 274:	4f 10 0c 02          	rex.WRXB adc %r9b,(%r10,%r8,1)
 278:	76 78                	jbe    2f2 <_Z35four_columns_c_cmp_with_literal_P_SPmmPPhjmmS1_jmmS1_jmmS1_jmm$$LSDA+0x29e>
 27a:	10 0d 02 76 70 10    	adc    %cl,0x10707602(%rip)        # 10707882 <__sti__$E+0x107040c2>
 280:	0e                   	(bad)  
 281:	02 76 68             	add    0x68(%rsi),%dh
 284:	10 0f                	adc    %cl,(%rdi)
 286:	02 76 60             	add    0x60(%rsi),%dh
 289:	03 04 07             	add    (%rdi,%rax,1),%eax
 28c:	cf                   	iret   
 28d:	42 ce                	rex.X (bad) 
 28f:	42 cd 42             	rex.X int $0x42
 292:	cc                   	int3   
 293:	43 c6 44 0c 07 08    	movb   $0x8,0x7(%r12,%r9,1)
 299:	c3                   	retq   
 29a:	00 00                	add    %al,(%rax)
 29c:	00 00                	add    %al,(%rax)
 29e:	00 00                	add    %al,(%rax)
 2a0:	1c 00                	sbb    $0x0,%al
 2a2:	00 00                	add    %al,(%rax)
 2a4:	00 00                	add    %al,(%rax)
 2a6:	00 00                	add    %al,(%rax)
 2a8:	01 7a 50             	add    %edi,0x50(%rdx)
 2ab:	52                   	push   %rdx
 2ac:	00 01                	add    %al,(%rcx)
 2ae:	78 10                	js     2c0 <.eh_frame+0x2c0>
 2b0:	06                   	(bad)  
 2b1:	9b                   	fwait
 2b2:	00 00                	add    %al,(%rax)
 2b4:	00 00                	add    %al,(%rax)
 2b6:	1b 0c 07             	sbb    (%rdi,%rax,1),%ecx
 2b9:	08 90 01 00 00 00    	or     %dl,0x1(%rax)
 2bf:	00 14 00             	add    %dl,(%rax,%rax,1)
 2c2:	00 00                	add    %al,(%rax)
 2c4:	24 00                	and    $0x0,%al
 2c6:	00 00                	add    %al,(%rax)
 2c8:	00 00                	add    %al,(%rax)
 2ca:	00 00                	add    %al,(%rax)
 2cc:	30 00                	xor    %al,(%rax)
 2ce:	00 00                	add    %al,(%rax)
 2d0:	00 41 0e             	add    %al,0xe(%rcx)
 2d3:	10 65 0e             	adc    %ah,0xe(%rbp)
 2d6:	08 00                	or     %al,(%rax)

Disassembly of section .gnu.linkonce.d.DW.ref.__gxx_personality_v0:

0000000000000000 <DW.ref.__gxx_personality_v0>:
	...
